
kernel/kernel:     file format elf64-littleriscv


Disassembly of section .text:

0000000080000000 <_entry>:
    80000000:	0000c117          	auipc	sp,0xc
    80000004:	18010113          	addi	sp,sp,384 # 8000c180 <stack0>
    80000008:	6505                	lui	a0,0x1
    8000000a:	f14025f3          	csrr	a1,mhartid
    8000000e:	0585                	addi	a1,a1,1
    80000010:	02b50533          	mul	a0,a0,a1
    80000014:	912a                	add	sp,sp,a0
    80000016:	078000ef          	jal	8000008e <start>

000000008000001a <spin>:
    8000001a:	a001                	j	8000001a <spin>

000000008000001c <timerinit>:
// which arrive at timervec in kernelvec.S,
// which turns them into software interrupts for
// devintr() in trap.c.
void
timerinit()
{
    8000001c:	1141                	addi	sp,sp,-16
    8000001e:	e406                	sd	ra,8(sp)
    80000020:	e022                	sd	s0,0(sp)
    80000022:	0800                	addi	s0,sp,16
// which hart (core) is this?
static inline uint64
r_mhartid()
{
  uint64 x;
  asm volatile("csrr %0, mhartid" : "=r" (x) );
    80000024:	f14027f3          	csrr	a5,mhartid
  // each CPU has a separate source of timer interrupts.
  int id = r_mhartid();
    80000028:	2781                	sext.w	a5,a5

  // ask the CLINT for a timer interrupt.
  int interval = 1000000; // cycles; about 1/10th second in qemu.
  *(uint64*)CLINT_MTIMECMP(id) = *(uint64*)CLINT_MTIME + interval;
    8000002a:	0037961b          	slliw	a2,a5,0x3
    8000002e:	02004737          	lui	a4,0x2004
    80000032:	963a                	add	a2,a2,a4
    80000034:	0200c737          	lui	a4,0x200c
    80000038:	ff873703          	ld	a4,-8(a4) # 200bff8 <_entry-0x7dff4008>
    8000003c:	000f46b7          	lui	a3,0xf4
    80000040:	24068693          	addi	a3,a3,576 # f4240 <_entry-0x7ff0bdc0>
    80000044:	9736                	add	a4,a4,a3
    80000046:	e218                	sd	a4,0(a2)

  // prepare information in scratch[] for timervec.
  // scratch[0..2] : space for timervec to save registers.
  // scratch[3] : address of CLINT MTIMECMP register.
  // scratch[4] : desired interval (in cycles) between timer interrupts.
  uint64 *scratch = &timer_scratch[id][0];
    80000048:	00279713          	slli	a4,a5,0x2
    8000004c:	973e                	add	a4,a4,a5
    8000004e:	070e                	slli	a4,a4,0x3
    80000050:	0000c797          	auipc	a5,0xc
    80000054:	ff078793          	addi	a5,a5,-16 # 8000c040 <timer_scratch>
    80000058:	97ba                	add	a5,a5,a4
  scratch[3] = CLINT_MTIMECMP(id);
    8000005a:	ef90                	sd	a2,24(a5)
  scratch[4] = interval;
    8000005c:	f394                	sd	a3,32(a5)
}

static inline void 
w_mscratch(uint64 x)
{
  asm volatile("csrw mscratch, %0" : : "r" (x));
    8000005e:	34079073          	csrw	mscratch,a5
  asm volatile("csrw mtvec, %0" : : "r" (x));
    80000062:	00006797          	auipc	a5,0x6
    80000066:	2de78793          	addi	a5,a5,734 # 80006340 <timervec>
    8000006a:	30579073          	csrw	mtvec,a5
  asm volatile("csrr %0, mstatus" : "=r" (x) );
    8000006e:	300027f3          	csrr	a5,mstatus

  // set the machine-mode trap handler.
  w_mtvec((uint64)timervec);

  // enable machine-mode interrupts.
  w_mstatus(r_mstatus() | MSTATUS_MIE);
    80000072:	0087e793          	ori	a5,a5,8
  asm volatile("csrw mstatus, %0" : : "r" (x));
    80000076:	30079073          	csrw	mstatus,a5
  asm volatile("csrr %0, mie" : "=r" (x) );
    8000007a:	304027f3          	csrr	a5,mie

  // enable machine-mode timer interrupts.
  w_mie(r_mie() | MIE_MTIE);
    8000007e:	0807e793          	ori	a5,a5,128
  asm volatile("csrw mie, %0" : : "r" (x));
    80000082:	30479073          	csrw	mie,a5
}
    80000086:	60a2                	ld	ra,8(sp)
    80000088:	6402                	ld	s0,0(sp)
    8000008a:	0141                	addi	sp,sp,16
    8000008c:	8082                	ret

000000008000008e <start>:
{
    8000008e:	1141                	addi	sp,sp,-16
    80000090:	e406                	sd	ra,8(sp)
    80000092:	e022                	sd	s0,0(sp)
    80000094:	0800                	addi	s0,sp,16
  asm volatile("csrr %0, mstatus" : "=r" (x) );
    80000096:	300027f3          	csrr	a5,mstatus
  x &= ~MSTATUS_MPP_MASK;
    8000009a:	7779                	lui	a4,0xffffe
    8000009c:	7ff70713          	addi	a4,a4,2047 # ffffffffffffe7ff <end+0xffffffff7ffd47ff>
    800000a0:	8ff9                	and	a5,a5,a4
  x |= MSTATUS_MPP_S;
    800000a2:	6705                	lui	a4,0x1
    800000a4:	80070713          	addi	a4,a4,-2048 # 800 <_entry-0x7ffff800>
    800000a8:	8fd9                	or	a5,a5,a4
  asm volatile("csrw mstatus, %0" : : "r" (x));
    800000aa:	30079073          	csrw	mstatus,a5
  asm volatile("csrw mepc, %0" : : "r" (x));
    800000ae:	00001797          	auipc	a5,0x1
    800000b2:	e5878793          	addi	a5,a5,-424 # 80000f06 <main>
    800000b6:	34179073          	csrw	mepc,a5
  asm volatile("csrw satp, %0" : : "r" (x));
    800000ba:	4781                	li	a5,0
    800000bc:	18079073          	csrw	satp,a5
  asm volatile("csrw medeleg, %0" : : "r" (x));
    800000c0:	67c1                	lui	a5,0x10
    800000c2:	17fd                	addi	a5,a5,-1 # ffff <_entry-0x7fff0001>
    800000c4:	30279073          	csrw	medeleg,a5
  asm volatile("csrw mideleg, %0" : : "r" (x));
    800000c8:	30379073          	csrw	mideleg,a5
  asm volatile("csrr %0, sie" : "=r" (x) );
    800000cc:	104027f3          	csrr	a5,sie
  w_sie(r_sie() | SIE_SEIE | SIE_STIE | SIE_SSIE);
    800000d0:	2227e793          	ori	a5,a5,546
  asm volatile("csrw sie, %0" : : "r" (x));
    800000d4:	10479073          	csrw	sie,a5
  asm volatile("csrw pmpaddr0, %0" : : "r" (x));
    800000d8:	57fd                	li	a5,-1
    800000da:	83a9                	srli	a5,a5,0xa
    800000dc:	3b079073          	csrw	pmpaddr0,a5
  asm volatile("csrw pmpcfg0, %0" : : "r" (x));
    800000e0:	47bd                	li	a5,15
    800000e2:	3a079073          	csrw	pmpcfg0,a5
  timerinit();
    800000e6:	00000097          	auipc	ra,0x0
    800000ea:	f36080e7          	jalr	-202(ra) # 8000001c <timerinit>
  asm volatile("csrr %0, mhartid" : "=r" (x) );
    800000ee:	f14027f3          	csrr	a5,mhartid
  w_tp(id);
    800000f2:	2781                	sext.w	a5,a5
}

static inline void 
w_tp(uint64 x)
{
  asm volatile("mv tp, %0" : : "r" (x));
    800000f4:	823e                	mv	tp,a5
  asm volatile("mret");
    800000f6:	30200073          	mret
}
    800000fa:	60a2                	ld	ra,8(sp)
    800000fc:	6402                	ld	s0,0(sp)
    800000fe:	0141                	addi	sp,sp,16
    80000100:	8082                	ret

0000000080000102 <consolewrite>:
//
// user write()s to the console go here.
//
int
consolewrite(int user_src, uint64 src, int n)
{
    80000102:	711d                	addi	sp,sp,-96
    80000104:	ec86                	sd	ra,88(sp)
    80000106:	e8a2                	sd	s0,80(sp)
    80000108:	e0ca                	sd	s2,64(sp)
    8000010a:	1080                	addi	s0,sp,96
  int i;

  for(i = 0; i < n; i++){
    8000010c:	04c05b63          	blez	a2,80000162 <consolewrite+0x60>
    80000110:	e4a6                	sd	s1,72(sp)
    80000112:	fc4e                	sd	s3,56(sp)
    80000114:	f852                	sd	s4,48(sp)
    80000116:	f456                	sd	s5,40(sp)
    80000118:	f05a                	sd	s6,32(sp)
    8000011a:	ec5e                	sd	s7,24(sp)
    8000011c:	8a2a                	mv	s4,a0
    8000011e:	84ae                	mv	s1,a1
    80000120:	89b2                	mv	s3,a2
    80000122:	4901                	li	s2,0
    char c;
    if(either_copyin(&c, user_src, src+i, 1) == -1)
    80000124:	faf40b93          	addi	s7,s0,-81
    80000128:	4b05                	li	s6,1
    8000012a:	5afd                	li	s5,-1
    8000012c:	86da                	mv	a3,s6
    8000012e:	8626                	mv	a2,s1
    80000130:	85d2                	mv	a1,s4
    80000132:	855e                	mv	a0,s7
    80000134:	00002097          	auipc	ra,0x2
    80000138:	58c080e7          	jalr	1420(ra) # 800026c0 <either_copyin>
    8000013c:	03550563          	beq	a0,s5,80000166 <consolewrite+0x64>
      break;
    uartputc(c);
    80000140:	faf44503          	lbu	a0,-81(s0)
    80000144:	00000097          	auipc	ra,0x0
    80000148:	7d0080e7          	jalr	2000(ra) # 80000914 <uartputc>
  for(i = 0; i < n; i++){
    8000014c:	2905                	addiw	s2,s2,1
    8000014e:	0485                	addi	s1,s1,1
    80000150:	fd299ee3          	bne	s3,s2,8000012c <consolewrite+0x2a>
    80000154:	64a6                	ld	s1,72(sp)
    80000156:	79e2                	ld	s3,56(sp)
    80000158:	7a42                	ld	s4,48(sp)
    8000015a:	7aa2                	ld	s5,40(sp)
    8000015c:	7b02                	ld	s6,32(sp)
    8000015e:	6be2                	ld	s7,24(sp)
    80000160:	a809                	j	80000172 <consolewrite+0x70>
    80000162:	4901                	li	s2,0
    80000164:	a039                	j	80000172 <consolewrite+0x70>
    80000166:	64a6                	ld	s1,72(sp)
    80000168:	79e2                	ld	s3,56(sp)
    8000016a:	7a42                	ld	s4,48(sp)
    8000016c:	7aa2                	ld	s5,40(sp)
    8000016e:	7b02                	ld	s6,32(sp)
    80000170:	6be2                	ld	s7,24(sp)
  }

  return i;
}
    80000172:	854a                	mv	a0,s2
    80000174:	60e6                	ld	ra,88(sp)
    80000176:	6446                	ld	s0,80(sp)
    80000178:	6906                	ld	s2,64(sp)
    8000017a:	6125                	addi	sp,sp,96
    8000017c:	8082                	ret

000000008000017e <consoleread>:
// user_dist indicates whether dst is a user
// or kernel address.
//
int
consoleread(int user_dst, uint64 dst, int n)
{
    8000017e:	711d                	addi	sp,sp,-96
    80000180:	ec86                	sd	ra,88(sp)
    80000182:	e8a2                	sd	s0,80(sp)
    80000184:	e4a6                	sd	s1,72(sp)
    80000186:	e0ca                	sd	s2,64(sp)
    80000188:	fc4e                	sd	s3,56(sp)
    8000018a:	f852                	sd	s4,48(sp)
    8000018c:	f05a                	sd	s6,32(sp)
    8000018e:	ec5e                	sd	s7,24(sp)
    80000190:	1080                	addi	s0,sp,96
    80000192:	8b2a                	mv	s6,a0
    80000194:	8a2e                	mv	s4,a1
    80000196:	89b2                	mv	s3,a2
  uint target;
  int c;
  char cbuf;

  target = n;
    80000198:	8bb2                	mv	s7,a2
  acquire(&cons.lock);
    8000019a:	00014517          	auipc	a0,0x14
    8000019e:	fe650513          	addi	a0,a0,-26 # 80014180 <cons>
    800001a2:	00001097          	auipc	ra,0x1
    800001a6:	ab2080e7          	jalr	-1358(ra) # 80000c54 <acquire>
  while(n > 0){
    // wait until interrupt handler has put some
    // input into cons.buffer.
    while(cons.r == cons.w){
    800001aa:	00014497          	auipc	s1,0x14
    800001ae:	fd648493          	addi	s1,s1,-42 # 80014180 <cons>
      if(myproc()->killed){
        release(&cons.lock);
        return -1;
      }
      sleep(&cons.r, &cons.lock);
    800001b2:	00014917          	auipc	s2,0x14
    800001b6:	06690913          	addi	s2,s2,102 # 80014218 <cons+0x98>
  while(n > 0){
    800001ba:	0d305263          	blez	s3,8000027e <consoleread+0x100>
    while(cons.r == cons.w){
    800001be:	0984a783          	lw	a5,152(s1)
    800001c2:	09c4a703          	lw	a4,156(s1)
    800001c6:	0af71763          	bne	a4,a5,80000274 <consoleread+0xf6>
      if(myproc()->killed){
    800001ca:	00002097          	auipc	ra,0x2
    800001ce:	8bc080e7          	jalr	-1860(ra) # 80001a86 <myproc>
    800001d2:	551c                	lw	a5,40(a0)
    800001d4:	e7ad                	bnez	a5,8000023e <consoleread+0xc0>
      sleep(&cons.r, &cons.lock);
    800001d6:	85a6                	mv	a1,s1
    800001d8:	854a                	mv	a0,s2
    800001da:	00002097          	auipc	ra,0x2
    800001de:	0e2080e7          	jalr	226(ra) # 800022bc <sleep>
    while(cons.r == cons.w){
    800001e2:	0984a783          	lw	a5,152(s1)
    800001e6:	09c4a703          	lw	a4,156(s1)
    800001ea:	fef700e3          	beq	a4,a5,800001ca <consoleread+0x4c>
    800001ee:	f456                	sd	s5,40(sp)
    }

    c = cons.buf[cons.r++ % INPUT_BUF];
    800001f0:	00014717          	auipc	a4,0x14
    800001f4:	f9070713          	addi	a4,a4,-112 # 80014180 <cons>
    800001f8:	0017869b          	addiw	a3,a5,1
    800001fc:	08d72c23          	sw	a3,152(a4)
    80000200:	07f7f693          	andi	a3,a5,127
    80000204:	9736                	add	a4,a4,a3
    80000206:	01874703          	lbu	a4,24(a4)
    8000020a:	00070a9b          	sext.w	s5,a4

    if(c == C('D')){  // end-of-file
    8000020e:	4691                	li	a3,4
    80000210:	04da8a63          	beq	s5,a3,80000264 <consoleread+0xe6>
      }
      break;
    }

    // copy the input byte to the user-space buffer.
    cbuf = c;
    80000214:	fae407a3          	sb	a4,-81(s0)
    if(either_copyout(user_dst, dst, &cbuf, 1) == -1)
    80000218:	4685                	li	a3,1
    8000021a:	faf40613          	addi	a2,s0,-81
    8000021e:	85d2                	mv	a1,s4
    80000220:	855a                	mv	a0,s6
    80000222:	00002097          	auipc	ra,0x2
    80000226:	448080e7          	jalr	1096(ra) # 8000266a <either_copyout>
    8000022a:	57fd                	li	a5,-1
    8000022c:	04f50863          	beq	a0,a5,8000027c <consoleread+0xfe>
      break;

    dst++;
    80000230:	0a05                	addi	s4,s4,1
    --n;
    80000232:	39fd                	addiw	s3,s3,-1

    if(c == '\n'){
    80000234:	47a9                	li	a5,10
    80000236:	04fa8f63          	beq	s5,a5,80000294 <consoleread+0x116>
    8000023a:	7aa2                	ld	s5,40(sp)
    8000023c:	bfbd                	j	800001ba <consoleread+0x3c>
        release(&cons.lock);
    8000023e:	00014517          	auipc	a0,0x14
    80000242:	f4250513          	addi	a0,a0,-190 # 80014180 <cons>
    80000246:	00001097          	auipc	ra,0x1
    8000024a:	abe080e7          	jalr	-1346(ra) # 80000d04 <release>
        return -1;
    8000024e:	557d                	li	a0,-1
    }
  }
  release(&cons.lock);

  return target - n;
}
    80000250:	60e6                	ld	ra,88(sp)
    80000252:	6446                	ld	s0,80(sp)
    80000254:	64a6                	ld	s1,72(sp)
    80000256:	6906                	ld	s2,64(sp)
    80000258:	79e2                	ld	s3,56(sp)
    8000025a:	7a42                	ld	s4,48(sp)
    8000025c:	7b02                	ld	s6,32(sp)
    8000025e:	6be2                	ld	s7,24(sp)
    80000260:	6125                	addi	sp,sp,96
    80000262:	8082                	ret
      if(n < target){
    80000264:	0179fa63          	bgeu	s3,s7,80000278 <consoleread+0xfa>
        cons.r--;
    80000268:	00014717          	auipc	a4,0x14
    8000026c:	faf72823          	sw	a5,-80(a4) # 80014218 <cons+0x98>
    80000270:	7aa2                	ld	s5,40(sp)
    80000272:	a031                	j	8000027e <consoleread+0x100>
    80000274:	f456                	sd	s5,40(sp)
    80000276:	bfad                	j	800001f0 <consoleread+0x72>
    80000278:	7aa2                	ld	s5,40(sp)
    8000027a:	a011                	j	8000027e <consoleread+0x100>
    8000027c:	7aa2                	ld	s5,40(sp)
  release(&cons.lock);
    8000027e:	00014517          	auipc	a0,0x14
    80000282:	f0250513          	addi	a0,a0,-254 # 80014180 <cons>
    80000286:	00001097          	auipc	ra,0x1
    8000028a:	a7e080e7          	jalr	-1410(ra) # 80000d04 <release>
  return target - n;
    8000028e:	413b853b          	subw	a0,s7,s3
    80000292:	bf7d                	j	80000250 <consoleread+0xd2>
    80000294:	7aa2                	ld	s5,40(sp)
    80000296:	b7e5                	j	8000027e <consoleread+0x100>

0000000080000298 <consputc>:
{
    80000298:	1141                	addi	sp,sp,-16
    8000029a:	e406                	sd	ra,8(sp)
    8000029c:	e022                	sd	s0,0(sp)
    8000029e:	0800                	addi	s0,sp,16
  if(c == BACKSPACE){
    800002a0:	10000793          	li	a5,256
    800002a4:	00f50a63          	beq	a0,a5,800002b8 <consputc+0x20>
    uartputc_sync(c);
    800002a8:	00000097          	auipc	ra,0x0
    800002ac:	58e080e7          	jalr	1422(ra) # 80000836 <uartputc_sync>
}
    800002b0:	60a2                	ld	ra,8(sp)
    800002b2:	6402                	ld	s0,0(sp)
    800002b4:	0141                	addi	sp,sp,16
    800002b6:	8082                	ret
    uartputc_sync('\b'); uartputc_sync(' '); uartputc_sync('\b');
    800002b8:	4521                	li	a0,8
    800002ba:	00000097          	auipc	ra,0x0
    800002be:	57c080e7          	jalr	1404(ra) # 80000836 <uartputc_sync>
    800002c2:	02000513          	li	a0,32
    800002c6:	00000097          	auipc	ra,0x0
    800002ca:	570080e7          	jalr	1392(ra) # 80000836 <uartputc_sync>
    800002ce:	4521                	li	a0,8
    800002d0:	00000097          	auipc	ra,0x0
    800002d4:	566080e7          	jalr	1382(ra) # 80000836 <uartputc_sync>
    800002d8:	bfe1                	j	800002b0 <consputc+0x18>

00000000800002da <consoleintr>:
// do erase/kill processing, append to cons.buf,
// wake up consoleread() if a whole line has arrived.
//
void
consoleintr(int c)
{
    800002da:	1101                	addi	sp,sp,-32
    800002dc:	ec06                	sd	ra,24(sp)
    800002de:	e822                	sd	s0,16(sp)
    800002e0:	e426                	sd	s1,8(sp)
    800002e2:	1000                	addi	s0,sp,32
    800002e4:	84aa                	mv	s1,a0
  acquire(&cons.lock);
    800002e6:	00014517          	auipc	a0,0x14
    800002ea:	e9a50513          	addi	a0,a0,-358 # 80014180 <cons>
    800002ee:	00001097          	auipc	ra,0x1
    800002f2:	966080e7          	jalr	-1690(ra) # 80000c54 <acquire>

  switch(c){
    800002f6:	47d5                	li	a5,21
    800002f8:	0af48263          	beq	s1,a5,8000039c <consoleintr+0xc2>
    800002fc:	0297c963          	blt	a5,s1,8000032e <consoleintr+0x54>
    80000300:	47a1                	li	a5,8
    80000302:	0ef48963          	beq	s1,a5,800003f4 <consoleintr+0x11a>
    80000306:	47c1                	li	a5,16
    80000308:	10f49c63          	bne	s1,a5,80000420 <consoleintr+0x146>
  case C('P'):  // Print process list.
    procdump();
    8000030c:	00002097          	auipc	ra,0x2
    80000310:	40a080e7          	jalr	1034(ra) # 80002716 <procdump>
      }
    }
    break;
  }
  
  release(&cons.lock);
    80000314:	00014517          	auipc	a0,0x14
    80000318:	e6c50513          	addi	a0,a0,-404 # 80014180 <cons>
    8000031c:	00001097          	auipc	ra,0x1
    80000320:	9e8080e7          	jalr	-1560(ra) # 80000d04 <release>
}
    80000324:	60e2                	ld	ra,24(sp)
    80000326:	6442                	ld	s0,16(sp)
    80000328:	64a2                	ld	s1,8(sp)
    8000032a:	6105                	addi	sp,sp,32
    8000032c:	8082                	ret
  switch(c){
    8000032e:	07f00793          	li	a5,127
    80000332:	0cf48163          	beq	s1,a5,800003f4 <consoleintr+0x11a>
    if(c != 0 && cons.e-cons.r < INPUT_BUF){
    80000336:	00014717          	auipc	a4,0x14
    8000033a:	e4a70713          	addi	a4,a4,-438 # 80014180 <cons>
    8000033e:	0a072783          	lw	a5,160(a4)
    80000342:	09872703          	lw	a4,152(a4)
    80000346:	9f99                	subw	a5,a5,a4
    80000348:	07f00713          	li	a4,127
    8000034c:	fcf764e3          	bltu	a4,a5,80000314 <consoleintr+0x3a>
      c = (c == '\r') ? '\n' : c;
    80000350:	47b5                	li	a5,13
    80000352:	0cf48a63          	beq	s1,a5,80000426 <consoleintr+0x14c>
      consputc(c);
    80000356:	8526                	mv	a0,s1
    80000358:	00000097          	auipc	ra,0x0
    8000035c:	f40080e7          	jalr	-192(ra) # 80000298 <consputc>
      cons.buf[cons.e++ % INPUT_BUF] = c;
    80000360:	00014717          	auipc	a4,0x14
    80000364:	e2070713          	addi	a4,a4,-480 # 80014180 <cons>
    80000368:	0a072683          	lw	a3,160(a4)
    8000036c:	0016879b          	addiw	a5,a3,1
    80000370:	863e                	mv	a2,a5
    80000372:	0af72023          	sw	a5,160(a4)
    80000376:	07f6f693          	andi	a3,a3,127
    8000037a:	9736                	add	a4,a4,a3
    8000037c:	00970c23          	sb	s1,24(a4)
      if(c == '\n' || c == C('D') || cons.e == cons.r+INPUT_BUF){
    80000380:	ff648713          	addi	a4,s1,-10
    80000384:	c779                	beqz	a4,80000452 <consoleintr+0x178>
    80000386:	14f1                	addi	s1,s1,-4
    80000388:	c4e9                	beqz	s1,80000452 <consoleintr+0x178>
    8000038a:	00014797          	auipc	a5,0x14
    8000038e:	e8e7a783          	lw	a5,-370(a5) # 80014218 <cons+0x98>
    80000392:	0807879b          	addiw	a5,a5,128
    80000396:	f6f61fe3          	bne	a2,a5,80000314 <consoleintr+0x3a>
    8000039a:	a865                	j	80000452 <consoleintr+0x178>
    8000039c:	e04a                	sd	s2,0(sp)
    while(cons.e != cons.w &&
    8000039e:	00014717          	auipc	a4,0x14
    800003a2:	de270713          	addi	a4,a4,-542 # 80014180 <cons>
    800003a6:	0a072783          	lw	a5,160(a4)
    800003aa:	09c72703          	lw	a4,156(a4)
          cons.buf[(cons.e-1) % INPUT_BUF] != '\n'){
    800003ae:	00014497          	auipc	s1,0x14
    800003b2:	dd248493          	addi	s1,s1,-558 # 80014180 <cons>
    while(cons.e != cons.w &&
    800003b6:	4929                	li	s2,10
    800003b8:	02f70a63          	beq	a4,a5,800003ec <consoleintr+0x112>
          cons.buf[(cons.e-1) % INPUT_BUF] != '\n'){
    800003bc:	37fd                	addiw	a5,a5,-1
    800003be:	07f7f713          	andi	a4,a5,127
    800003c2:	9726                	add	a4,a4,s1
    while(cons.e != cons.w &&
    800003c4:	01874703          	lbu	a4,24(a4)
    800003c8:	03270463          	beq	a4,s2,800003f0 <consoleintr+0x116>
      cons.e--;
    800003cc:	0af4a023          	sw	a5,160(s1)
      consputc(BACKSPACE);
    800003d0:	10000513          	li	a0,256
    800003d4:	00000097          	auipc	ra,0x0
    800003d8:	ec4080e7          	jalr	-316(ra) # 80000298 <consputc>
    while(cons.e != cons.w &&
    800003dc:	0a04a783          	lw	a5,160(s1)
    800003e0:	09c4a703          	lw	a4,156(s1)
    800003e4:	fcf71ce3          	bne	a4,a5,800003bc <consoleintr+0xe2>
    800003e8:	6902                	ld	s2,0(sp)
    800003ea:	b72d                	j	80000314 <consoleintr+0x3a>
    800003ec:	6902                	ld	s2,0(sp)
    800003ee:	b71d                	j	80000314 <consoleintr+0x3a>
    800003f0:	6902                	ld	s2,0(sp)
    800003f2:	b70d                	j	80000314 <consoleintr+0x3a>
    if(cons.e != cons.w){
    800003f4:	00014717          	auipc	a4,0x14
    800003f8:	d8c70713          	addi	a4,a4,-628 # 80014180 <cons>
    800003fc:	0a072783          	lw	a5,160(a4)
    80000400:	09c72703          	lw	a4,156(a4)
    80000404:	f0f708e3          	beq	a4,a5,80000314 <consoleintr+0x3a>
      cons.e--;
    80000408:	37fd                	addiw	a5,a5,-1
    8000040a:	00014717          	auipc	a4,0x14
    8000040e:	e0f72b23          	sw	a5,-490(a4) # 80014220 <cons+0xa0>
      consputc(BACKSPACE);
    80000412:	10000513          	li	a0,256
    80000416:	00000097          	auipc	ra,0x0
    8000041a:	e82080e7          	jalr	-382(ra) # 80000298 <consputc>
    8000041e:	bddd                	j	80000314 <consoleintr+0x3a>
    if(c != 0 && cons.e-cons.r < INPUT_BUF){
    80000420:	ee048ae3          	beqz	s1,80000314 <consoleintr+0x3a>
    80000424:	bf09                	j	80000336 <consoleintr+0x5c>
      consputc(c);
    80000426:	4529                	li	a0,10
    80000428:	00000097          	auipc	ra,0x0
    8000042c:	e70080e7          	jalr	-400(ra) # 80000298 <consputc>
      cons.buf[cons.e++ % INPUT_BUF] = c;
    80000430:	00014717          	auipc	a4,0x14
    80000434:	d5070713          	addi	a4,a4,-688 # 80014180 <cons>
    80000438:	0a072683          	lw	a3,160(a4)
    8000043c:	0016861b          	addiw	a2,a3,1
    80000440:	87b2                	mv	a5,a2
    80000442:	0ac72023          	sw	a2,160(a4)
    80000446:	07f6f693          	andi	a3,a3,127
    8000044a:	9736                	add	a4,a4,a3
    8000044c:	46a9                	li	a3,10
    8000044e:	00d70c23          	sb	a3,24(a4)
        cons.w = cons.e;
    80000452:	00014717          	auipc	a4,0x14
    80000456:	dcf72523          	sw	a5,-566(a4) # 8001421c <cons+0x9c>
        wakeup(&cons.r);
    8000045a:	00014517          	auipc	a0,0x14
    8000045e:	dbe50513          	addi	a0,a0,-578 # 80014218 <cons+0x98>
    80000462:	00002097          	auipc	ra,0x2
    80000466:	fe0080e7          	jalr	-32(ra) # 80002442 <wakeup>
    8000046a:	b56d                	j	80000314 <consoleintr+0x3a>

000000008000046c <consoleinit>:

void
consoleinit(void)
{
    8000046c:	1141                	addi	sp,sp,-16
    8000046e:	e406                	sd	ra,8(sp)
    80000470:	e022                	sd	s0,0(sp)
    80000472:	0800                	addi	s0,sp,16
  initlock(&cons.lock, "cons");
    80000474:	00008597          	auipc	a1,0x8
    80000478:	b8c58593          	addi	a1,a1,-1140 # 80008000 <etext>
    8000047c:	00014517          	auipc	a0,0x14
    80000480:	d0450513          	addi	a0,a0,-764 # 80014180 <cons>
    80000484:	00000097          	auipc	ra,0x0
    80000488:	736080e7          	jalr	1846(ra) # 80000bba <initlock>

  uartinit();
    8000048c:	00000097          	auipc	ra,0x0
    80000490:	350080e7          	jalr	848(ra) # 800007dc <uartinit>

  // connect read and write system calls
  // to consoleread and consolewrite.
  devsw[CONSOLE].read = consoleread;
    80000494:	00025797          	auipc	a5,0x25
    80000498:	68478793          	addi	a5,a5,1668 # 80025b18 <devsw>
    8000049c:	00000717          	auipc	a4,0x0
    800004a0:	ce270713          	addi	a4,a4,-798 # 8000017e <consoleread>
    800004a4:	eb98                	sd	a4,16(a5)
  devsw[CONSOLE].write = consolewrite;
    800004a6:	00000717          	auipc	a4,0x0
    800004aa:	c5c70713          	addi	a4,a4,-932 # 80000102 <consolewrite>
    800004ae:	ef98                	sd	a4,24(a5)
}
    800004b0:	60a2                	ld	ra,8(sp)
    800004b2:	6402                	ld	s0,0(sp)
    800004b4:	0141                	addi	sp,sp,16
    800004b6:	8082                	ret

00000000800004b8 <printint>:

static char digits[] = "0123456789abcdef";

static void
printint(int xx, int base, int sign)
{
    800004b8:	7179                	addi	sp,sp,-48
    800004ba:	f406                	sd	ra,40(sp)
    800004bc:	f022                	sd	s0,32(sp)
    800004be:	e84a                	sd	s2,16(sp)
    800004c0:	1800                	addi	s0,sp,48
  char buf[16];
  int i;
  uint x;

  if(sign && (sign = xx < 0))
    800004c2:	c219                	beqz	a2,800004c8 <printint+0x10>
    800004c4:	08054563          	bltz	a0,8000054e <printint+0x96>
    x = -xx;
  else
    x = xx;
    800004c8:	4301                	li	t1,0

  i = 0;
    800004ca:	fd040913          	addi	s2,s0,-48
    x = xx;
    800004ce:	86ca                	mv	a3,s2
  i = 0;
    800004d0:	4701                	li	a4,0
  do {
    buf[i++] = digits[x % base];
    800004d2:	00008817          	auipc	a6,0x8
    800004d6:	35680813          	addi	a6,a6,854 # 80008828 <digits>
    800004da:	88ba                	mv	a7,a4
    800004dc:	0017061b          	addiw	a2,a4,1
    800004e0:	8732                	mv	a4,a2
    800004e2:	02b577bb          	remuw	a5,a0,a1
    800004e6:	1782                	slli	a5,a5,0x20
    800004e8:	9381                	srli	a5,a5,0x20
    800004ea:	97c2                	add	a5,a5,a6
    800004ec:	0007c783          	lbu	a5,0(a5)
    800004f0:	00f68023          	sb	a5,0(a3)
  } while((x /= base) != 0);
    800004f4:	87aa                	mv	a5,a0
    800004f6:	02b5553b          	divuw	a0,a0,a1
    800004fa:	0685                	addi	a3,a3,1
    800004fc:	fcb7ffe3          	bgeu	a5,a1,800004da <printint+0x22>

  if(sign)
    80000500:	00030c63          	beqz	t1,80000518 <printint+0x60>
    buf[i++] = '-';
    80000504:	fe060793          	addi	a5,a2,-32
    80000508:	00878633          	add	a2,a5,s0
    8000050c:	02d00793          	li	a5,45
    80000510:	fef60823          	sb	a5,-16(a2)
    80000514:	0028871b          	addiw	a4,a7,2

  while(--i >= 0)
    80000518:	02e05663          	blez	a4,80000544 <printint+0x8c>
    8000051c:	ec26                	sd	s1,24(sp)
    8000051e:	377d                	addiw	a4,a4,-1
    80000520:	00e904b3          	add	s1,s2,a4
    80000524:	197d                	addi	s2,s2,-1
    80000526:	993a                	add	s2,s2,a4
    80000528:	1702                	slli	a4,a4,0x20
    8000052a:	9301                	srli	a4,a4,0x20
    8000052c:	40e90933          	sub	s2,s2,a4
    consputc(buf[i]);
    80000530:	0004c503          	lbu	a0,0(s1)
    80000534:	00000097          	auipc	ra,0x0
    80000538:	d64080e7          	jalr	-668(ra) # 80000298 <consputc>
  while(--i >= 0)
    8000053c:	14fd                	addi	s1,s1,-1
    8000053e:	ff2499e3          	bne	s1,s2,80000530 <printint+0x78>
    80000542:	64e2                	ld	s1,24(sp)
}
    80000544:	70a2                	ld	ra,40(sp)
    80000546:	7402                	ld	s0,32(sp)
    80000548:	6942                	ld	s2,16(sp)
    8000054a:	6145                	addi	sp,sp,48
    8000054c:	8082                	ret
    x = -xx;
    8000054e:	40a0053b          	negw	a0,a0
  if(sign && (sign = xx < 0))
    80000552:	4305                	li	t1,1
    x = -xx;
    80000554:	bf9d                	j	800004ca <printint+0x12>

0000000080000556 <panic>:
    release(&pr.lock);
}

void
panic(char *s)
{
    80000556:	1101                	addi	sp,sp,-32
    80000558:	ec06                	sd	ra,24(sp)
    8000055a:	e822                	sd	s0,16(sp)
    8000055c:	e426                	sd	s1,8(sp)
    8000055e:	1000                	addi	s0,sp,32
    80000560:	84aa                	mv	s1,a0
  pr.locking = 0;
    80000562:	00014797          	auipc	a5,0x14
    80000566:	cc07af23          	sw	zero,-802(a5) # 80014240 <pr+0x18>
  printf("panic: ");
    8000056a:	00008517          	auipc	a0,0x8
    8000056e:	a9e50513          	addi	a0,a0,-1378 # 80008008 <etext+0x8>
    80000572:	00000097          	auipc	ra,0x0
    80000576:	02e080e7          	jalr	46(ra) # 800005a0 <printf>
  printf(s);
    8000057a:	8526                	mv	a0,s1
    8000057c:	00000097          	auipc	ra,0x0
    80000580:	024080e7          	jalr	36(ra) # 800005a0 <printf>
  printf("\n");
    80000584:	00008517          	auipc	a0,0x8
    80000588:	a8c50513          	addi	a0,a0,-1396 # 80008010 <etext+0x10>
    8000058c:	00000097          	auipc	ra,0x0
    80000590:	014080e7          	jalr	20(ra) # 800005a0 <printf>
  panicked = 1; // freeze uart output from other CPUs
    80000594:	4785                	li	a5,1
    80000596:	0000c717          	auipc	a4,0xc
    8000059a:	a6f72523          	sw	a5,-1430(a4) # 8000c000 <panicked>
  for(;;)
    8000059e:	a001                	j	8000059e <panic+0x48>

00000000800005a0 <printf>:
{
    800005a0:	7131                	addi	sp,sp,-192
    800005a2:	fc86                	sd	ra,120(sp)
    800005a4:	f8a2                	sd	s0,112(sp)
    800005a6:	e8d2                	sd	s4,80(sp)
    800005a8:	ec6e                	sd	s11,24(sp)
    800005aa:	0100                	addi	s0,sp,128
    800005ac:	8a2a                	mv	s4,a0
    800005ae:	e40c                	sd	a1,8(s0)
    800005b0:	e810                	sd	a2,16(s0)
    800005b2:	ec14                	sd	a3,24(s0)
    800005b4:	f018                	sd	a4,32(s0)
    800005b6:	f41c                	sd	a5,40(s0)
    800005b8:	03043823          	sd	a6,48(s0)
    800005bc:	03143c23          	sd	a7,56(s0)
  locking = pr.locking;
    800005c0:	00014d97          	auipc	s11,0x14
    800005c4:	c80dad83          	lw	s11,-896(s11) # 80014240 <pr+0x18>
  if(locking)
    800005c8:	040d9463          	bnez	s11,80000610 <printf+0x70>
  if (fmt == 0)
    800005cc:	040a0b63          	beqz	s4,80000622 <printf+0x82>
  va_start(ap, fmt);
    800005d0:	00840793          	addi	a5,s0,8
    800005d4:	f8f43423          	sd	a5,-120(s0)
  for(i = 0; (c = fmt[i] & 0xff) != 0; i++){
    800005d8:	000a4503          	lbu	a0,0(s4)
    800005dc:	18050c63          	beqz	a0,80000774 <printf+0x1d4>
    800005e0:	f4a6                	sd	s1,104(sp)
    800005e2:	f0ca                	sd	s2,96(sp)
    800005e4:	ecce                	sd	s3,88(sp)
    800005e6:	e4d6                	sd	s5,72(sp)
    800005e8:	e0da                	sd	s6,64(sp)
    800005ea:	fc5e                	sd	s7,56(sp)
    800005ec:	f862                	sd	s8,48(sp)
    800005ee:	f466                	sd	s9,40(sp)
    800005f0:	f06a                	sd	s10,32(sp)
    800005f2:	4981                	li	s3,0
    if(c != '%'){
    800005f4:	02500b13          	li	s6,37
    switch(c){
    800005f8:	07000b93          	li	s7,112
  consputc('x');
    800005fc:	07800c93          	li	s9,120
    80000600:	4d41                	li	s10,16
    consputc(digits[x >> (sizeof(uint64) * 8 - 4)]);
    80000602:	00008a97          	auipc	s5,0x8
    80000606:	226a8a93          	addi	s5,s5,550 # 80008828 <digits>
    switch(c){
    8000060a:	07300c13          	li	s8,115
    8000060e:	a0b9                	j	8000065c <printf+0xbc>
    acquire(&pr.lock);
    80000610:	00014517          	auipc	a0,0x14
    80000614:	c1850513          	addi	a0,a0,-1000 # 80014228 <pr>
    80000618:	00000097          	auipc	ra,0x0
    8000061c:	63c080e7          	jalr	1596(ra) # 80000c54 <acquire>
    80000620:	b775                	j	800005cc <printf+0x2c>
    80000622:	f4a6                	sd	s1,104(sp)
    80000624:	f0ca                	sd	s2,96(sp)
    80000626:	ecce                	sd	s3,88(sp)
    80000628:	e4d6                	sd	s5,72(sp)
    8000062a:	e0da                	sd	s6,64(sp)
    8000062c:	fc5e                	sd	s7,56(sp)
    8000062e:	f862                	sd	s8,48(sp)
    80000630:	f466                	sd	s9,40(sp)
    80000632:	f06a                	sd	s10,32(sp)
    panic("null fmt");
    80000634:	00008517          	auipc	a0,0x8
    80000638:	9ec50513          	addi	a0,a0,-1556 # 80008020 <etext+0x20>
    8000063c:	00000097          	auipc	ra,0x0
    80000640:	f1a080e7          	jalr	-230(ra) # 80000556 <panic>
      consputc(c);
    80000644:	00000097          	auipc	ra,0x0
    80000648:	c54080e7          	jalr	-940(ra) # 80000298 <consputc>
  for(i = 0; (c = fmt[i] & 0xff) != 0; i++){
    8000064c:	0019879b          	addiw	a5,s3,1
    80000650:	89be                	mv	s3,a5
    80000652:	97d2                	add	a5,a5,s4
    80000654:	0007c503          	lbu	a0,0(a5)
    80000658:	10050563          	beqz	a0,80000762 <printf+0x1c2>
    if(c != '%'){
    8000065c:	ff6514e3          	bne	a0,s6,80000644 <printf+0xa4>
    c = fmt[++i] & 0xff;
    80000660:	0019879b          	addiw	a5,s3,1
    80000664:	89be                	mv	s3,a5
    80000666:	97d2                	add	a5,a5,s4
    80000668:	0007c783          	lbu	a5,0(a5)
    8000066c:	0007849b          	sext.w	s1,a5
    if(c == 0)
    80000670:	10078a63          	beqz	a5,80000784 <printf+0x1e4>
    switch(c){
    80000674:	05778a63          	beq	a5,s7,800006c8 <printf+0x128>
    80000678:	02fbf463          	bgeu	s7,a5,800006a0 <printf+0x100>
    8000067c:	09878763          	beq	a5,s8,8000070a <printf+0x16a>
    80000680:	0d979663          	bne	a5,s9,8000074c <printf+0x1ac>
      printint(va_arg(ap, int), 16, 1);
    80000684:	f8843783          	ld	a5,-120(s0)
    80000688:	00878713          	addi	a4,a5,8
    8000068c:	f8e43423          	sd	a4,-120(s0)
    80000690:	4605                	li	a2,1
    80000692:	85ea                	mv	a1,s10
    80000694:	4388                	lw	a0,0(a5)
    80000696:	00000097          	auipc	ra,0x0
    8000069a:	e22080e7          	jalr	-478(ra) # 800004b8 <printint>
      break;
    8000069e:	b77d                	j	8000064c <printf+0xac>
    switch(c){
    800006a0:	0b678063          	beq	a5,s6,80000740 <printf+0x1a0>
    800006a4:	06400713          	li	a4,100
    800006a8:	0ae79263          	bne	a5,a4,8000074c <printf+0x1ac>
      printint(va_arg(ap, int), 10, 1);
    800006ac:	f8843783          	ld	a5,-120(s0)
    800006b0:	00878713          	addi	a4,a5,8
    800006b4:	f8e43423          	sd	a4,-120(s0)
    800006b8:	4605                	li	a2,1
    800006ba:	45a9                	li	a1,10
    800006bc:	4388                	lw	a0,0(a5)
    800006be:	00000097          	auipc	ra,0x0
    800006c2:	dfa080e7          	jalr	-518(ra) # 800004b8 <printint>
      break;
    800006c6:	b759                	j	8000064c <printf+0xac>
      printptr(va_arg(ap, uint64));
    800006c8:	f8843783          	ld	a5,-120(s0)
    800006cc:	00878713          	addi	a4,a5,8
    800006d0:	f8e43423          	sd	a4,-120(s0)
    800006d4:	0007b903          	ld	s2,0(a5)
  consputc('0');
    800006d8:	03000513          	li	a0,48
    800006dc:	00000097          	auipc	ra,0x0
    800006e0:	bbc080e7          	jalr	-1092(ra) # 80000298 <consputc>
  consputc('x');
    800006e4:	8566                	mv	a0,s9
    800006e6:	00000097          	auipc	ra,0x0
    800006ea:	bb2080e7          	jalr	-1102(ra) # 80000298 <consputc>
    800006ee:	84ea                	mv	s1,s10
    consputc(digits[x >> (sizeof(uint64) * 8 - 4)]);
    800006f0:	03c95793          	srli	a5,s2,0x3c
    800006f4:	97d6                	add	a5,a5,s5
    800006f6:	0007c503          	lbu	a0,0(a5)
    800006fa:	00000097          	auipc	ra,0x0
    800006fe:	b9e080e7          	jalr	-1122(ra) # 80000298 <consputc>
  for (i = 0; i < (sizeof(uint64) * 2); i++, x <<= 4)
    80000702:	0912                	slli	s2,s2,0x4
    80000704:	34fd                	addiw	s1,s1,-1
    80000706:	f4ed                	bnez	s1,800006f0 <printf+0x150>
    80000708:	b791                	j	8000064c <printf+0xac>
      if((s = va_arg(ap, char*)) == 0)
    8000070a:	f8843783          	ld	a5,-120(s0)
    8000070e:	00878713          	addi	a4,a5,8
    80000712:	f8e43423          	sd	a4,-120(s0)
    80000716:	6384                	ld	s1,0(a5)
    80000718:	cc89                	beqz	s1,80000732 <printf+0x192>
      for(; *s; s++)
    8000071a:	0004c503          	lbu	a0,0(s1)
    8000071e:	d51d                	beqz	a0,8000064c <printf+0xac>
        consputc(*s);
    80000720:	00000097          	auipc	ra,0x0
    80000724:	b78080e7          	jalr	-1160(ra) # 80000298 <consputc>
      for(; *s; s++)
    80000728:	0485                	addi	s1,s1,1
    8000072a:	0004c503          	lbu	a0,0(s1)
    8000072e:	f96d                	bnez	a0,80000720 <printf+0x180>
    80000730:	bf31                	j	8000064c <printf+0xac>
        s = "(null)";
    80000732:	00008497          	auipc	s1,0x8
    80000736:	8e648493          	addi	s1,s1,-1818 # 80008018 <etext+0x18>
      for(; *s; s++)
    8000073a:	02800513          	li	a0,40
    8000073e:	b7cd                	j	80000720 <printf+0x180>
      consputc('%');
    80000740:	855a                	mv	a0,s6
    80000742:	00000097          	auipc	ra,0x0
    80000746:	b56080e7          	jalr	-1194(ra) # 80000298 <consputc>
      break;
    8000074a:	b709                	j	8000064c <printf+0xac>
      consputc('%');
    8000074c:	855a                	mv	a0,s6
    8000074e:	00000097          	auipc	ra,0x0
    80000752:	b4a080e7          	jalr	-1206(ra) # 80000298 <consputc>
      consputc(c);
    80000756:	8526                	mv	a0,s1
    80000758:	00000097          	auipc	ra,0x0
    8000075c:	b40080e7          	jalr	-1216(ra) # 80000298 <consputc>
      break;
    80000760:	b5f5                	j	8000064c <printf+0xac>
    80000762:	74a6                	ld	s1,104(sp)
    80000764:	7906                	ld	s2,96(sp)
    80000766:	69e6                	ld	s3,88(sp)
    80000768:	6aa6                	ld	s5,72(sp)
    8000076a:	6b06                	ld	s6,64(sp)
    8000076c:	7be2                	ld	s7,56(sp)
    8000076e:	7c42                	ld	s8,48(sp)
    80000770:	7ca2                	ld	s9,40(sp)
    80000772:	7d02                	ld	s10,32(sp)
  if(locking)
    80000774:	020d9263          	bnez	s11,80000798 <printf+0x1f8>
}
    80000778:	70e6                	ld	ra,120(sp)
    8000077a:	7446                	ld	s0,112(sp)
    8000077c:	6a46                	ld	s4,80(sp)
    8000077e:	6de2                	ld	s11,24(sp)
    80000780:	6129                	addi	sp,sp,192
    80000782:	8082                	ret
    80000784:	74a6                	ld	s1,104(sp)
    80000786:	7906                	ld	s2,96(sp)
    80000788:	69e6                	ld	s3,88(sp)
    8000078a:	6aa6                	ld	s5,72(sp)
    8000078c:	6b06                	ld	s6,64(sp)
    8000078e:	7be2                	ld	s7,56(sp)
    80000790:	7c42                	ld	s8,48(sp)
    80000792:	7ca2                	ld	s9,40(sp)
    80000794:	7d02                	ld	s10,32(sp)
    80000796:	bff9                	j	80000774 <printf+0x1d4>
    release(&pr.lock);
    80000798:	00014517          	auipc	a0,0x14
    8000079c:	a9050513          	addi	a0,a0,-1392 # 80014228 <pr>
    800007a0:	00000097          	auipc	ra,0x0
    800007a4:	564080e7          	jalr	1380(ra) # 80000d04 <release>
}
    800007a8:	bfc1                	j	80000778 <printf+0x1d8>

00000000800007aa <printfinit>:
    ;
}

void
printfinit(void)
{
    800007aa:	1141                	addi	sp,sp,-16
    800007ac:	e406                	sd	ra,8(sp)
    800007ae:	e022                	sd	s0,0(sp)
    800007b0:	0800                	addi	s0,sp,16
  initlock(&pr.lock, "pr");
    800007b2:	00008597          	auipc	a1,0x8
    800007b6:	87e58593          	addi	a1,a1,-1922 # 80008030 <etext+0x30>
    800007ba:	00014517          	auipc	a0,0x14
    800007be:	a6e50513          	addi	a0,a0,-1426 # 80014228 <pr>
    800007c2:	00000097          	auipc	ra,0x0
    800007c6:	3f8080e7          	jalr	1016(ra) # 80000bba <initlock>
  pr.locking = 1;
    800007ca:	4785                	li	a5,1
    800007cc:	00014717          	auipc	a4,0x14
    800007d0:	a6f72a23          	sw	a5,-1420(a4) # 80014240 <pr+0x18>
}
    800007d4:	60a2                	ld	ra,8(sp)
    800007d6:	6402                	ld	s0,0(sp)
    800007d8:	0141                	addi	sp,sp,16
    800007da:	8082                	ret

00000000800007dc <uartinit>:

void uartstart();

void
uartinit(void)
{
    800007dc:	1141                	addi	sp,sp,-16
    800007de:	e406                	sd	ra,8(sp)
    800007e0:	e022                	sd	s0,0(sp)
    800007e2:	0800                	addi	s0,sp,16
  // disable interrupts.
  WriteReg(IER, 0x00);
    800007e4:	100007b7          	lui	a5,0x10000
    800007e8:	000780a3          	sb	zero,1(a5) # 10000001 <_entry-0x6fffffff>

  // special mode to set baud rate.
  WriteReg(LCR, LCR_BAUD_LATCH);
    800007ec:	10000737          	lui	a4,0x10000
    800007f0:	f8000693          	li	a3,-128
    800007f4:	00d701a3          	sb	a3,3(a4) # 10000003 <_entry-0x6ffffffd>

  // LSB for baud rate of 38.4K.
  WriteReg(0, 0x03);
    800007f8:	468d                	li	a3,3
    800007fa:	10000637          	lui	a2,0x10000
    800007fe:	00d60023          	sb	a3,0(a2) # 10000000 <_entry-0x70000000>

  // MSB for baud rate of 38.4K.
  WriteReg(1, 0x00);
    80000802:	000780a3          	sb	zero,1(a5)

  // leave set-baud mode,
  // and set word length to 8 bits, no parity.
  WriteReg(LCR, LCR_EIGHT_BITS);
    80000806:	00d701a3          	sb	a3,3(a4)

  // reset and enable FIFOs.
  WriteReg(FCR, FCR_FIFO_ENABLE | FCR_FIFO_CLEAR);
    8000080a:	8732                	mv	a4,a2
    8000080c:	461d                	li	a2,7
    8000080e:	00c70123          	sb	a2,2(a4)

  // enable transmit and receive interrupts.
  WriteReg(IER, IER_TX_ENABLE | IER_RX_ENABLE);
    80000812:	00d780a3          	sb	a3,1(a5)

  initlock(&uart_tx_lock, "uart");
    80000816:	00008597          	auipc	a1,0x8
    8000081a:	82258593          	addi	a1,a1,-2014 # 80008038 <etext+0x38>
    8000081e:	00014517          	auipc	a0,0x14
    80000822:	a2a50513          	addi	a0,a0,-1494 # 80014248 <uart_tx_lock>
    80000826:	00000097          	auipc	ra,0x0
    8000082a:	394080e7          	jalr	916(ra) # 80000bba <initlock>
}
    8000082e:	60a2                	ld	ra,8(sp)
    80000830:	6402                	ld	s0,0(sp)
    80000832:	0141                	addi	sp,sp,16
    80000834:	8082                	ret

0000000080000836 <uartputc_sync>:
// use interrupts, for use by kernel printf() and
// to echo characters. it spins waiting for the uart's
// output register to be empty.
void
uartputc_sync(int c)
{
    80000836:	1101                	addi	sp,sp,-32
    80000838:	ec06                	sd	ra,24(sp)
    8000083a:	e822                	sd	s0,16(sp)
    8000083c:	e426                	sd	s1,8(sp)
    8000083e:	1000                	addi	s0,sp,32
    80000840:	84aa                	mv	s1,a0
  push_off();
    80000842:	00000097          	auipc	ra,0x0
    80000846:	3c2080e7          	jalr	962(ra) # 80000c04 <push_off>

  if(panicked){
    8000084a:	0000b797          	auipc	a5,0xb
    8000084e:	7b67a783          	lw	a5,1974(a5) # 8000c000 <panicked>
    80000852:	eb85                	bnez	a5,80000882 <uartputc_sync+0x4c>
    for(;;)
      ;
  }

  // wait for Transmit Holding Empty to be set in LSR.
  while((ReadReg(LSR) & LSR_TX_IDLE) == 0)
    80000854:	10000737          	lui	a4,0x10000
    80000858:	0715                	addi	a4,a4,5 # 10000005 <_entry-0x6ffffffb>
    8000085a:	00074783          	lbu	a5,0(a4)
    8000085e:	0207f793          	andi	a5,a5,32
    80000862:	dfe5                	beqz	a5,8000085a <uartputc_sync+0x24>
    ;
  WriteReg(THR, c);
    80000864:	0ff4f513          	zext.b	a0,s1
    80000868:	100007b7          	lui	a5,0x10000
    8000086c:	00a78023          	sb	a0,0(a5) # 10000000 <_entry-0x70000000>

  pop_off();
    80000870:	00000097          	auipc	ra,0x0
    80000874:	438080e7          	jalr	1080(ra) # 80000ca8 <pop_off>
}
    80000878:	60e2                	ld	ra,24(sp)
    8000087a:	6442                	ld	s0,16(sp)
    8000087c:	64a2                	ld	s1,8(sp)
    8000087e:	6105                	addi	sp,sp,32
    80000880:	8082                	ret
    for(;;)
    80000882:	a001                	j	80000882 <uartputc_sync+0x4c>

0000000080000884 <uartstart>:
// called from both the top- and bottom-half.
void
uartstart()
{
  while(1){
    if(uart_tx_w == uart_tx_r){
    80000884:	0000b797          	auipc	a5,0xb
    80000888:	7847b783          	ld	a5,1924(a5) # 8000c008 <uart_tx_r>
    8000088c:	0000b717          	auipc	a4,0xb
    80000890:	78473703          	ld	a4,1924(a4) # 8000c010 <uart_tx_w>
    80000894:	06f70f63          	beq	a4,a5,80000912 <uartstart+0x8e>
{
    80000898:	7139                	addi	sp,sp,-64
    8000089a:	fc06                	sd	ra,56(sp)
    8000089c:	f822                	sd	s0,48(sp)
    8000089e:	f426                	sd	s1,40(sp)
    800008a0:	f04a                	sd	s2,32(sp)
    800008a2:	ec4e                	sd	s3,24(sp)
    800008a4:	e852                	sd	s4,16(sp)
    800008a6:	e456                	sd	s5,8(sp)
    800008a8:	e05a                	sd	s6,0(sp)
    800008aa:	0080                	addi	s0,sp,64
      // transmit buffer is empty.
      return;
    }
    
    if((ReadReg(LSR) & LSR_TX_IDLE) == 0){
    800008ac:	10000937          	lui	s2,0x10000
    800008b0:	0915                	addi	s2,s2,5 # 10000005 <_entry-0x6ffffffb>
      // so we cannot give it another byte.
      // it will interrupt when it's ready for a new byte.
      return;
    }
    
    int c = uart_tx_buf[uart_tx_r % UART_TX_BUF_SIZE];
    800008b2:	00014a97          	auipc	s5,0x14
    800008b6:	996a8a93          	addi	s5,s5,-1642 # 80014248 <uart_tx_lock>
    uart_tx_r += 1;
    800008ba:	0000b497          	auipc	s1,0xb
    800008be:	74e48493          	addi	s1,s1,1870 # 8000c008 <uart_tx_r>
    
    // maybe uartputc() is waiting for space in the buffer.
    wakeup(&uart_tx_r);
    
    WriteReg(THR, c);
    800008c2:	10000a37          	lui	s4,0x10000
    if(uart_tx_w == uart_tx_r){
    800008c6:	0000b997          	auipc	s3,0xb
    800008ca:	74a98993          	addi	s3,s3,1866 # 8000c010 <uart_tx_w>
    if((ReadReg(LSR) & LSR_TX_IDLE) == 0){
    800008ce:	00094703          	lbu	a4,0(s2)
    800008d2:	02077713          	andi	a4,a4,32
    800008d6:	c705                	beqz	a4,800008fe <uartstart+0x7a>
    int c = uart_tx_buf[uart_tx_r % UART_TX_BUF_SIZE];
    800008d8:	01f7f713          	andi	a4,a5,31
    800008dc:	9756                	add	a4,a4,s5
    800008de:	01874b03          	lbu	s6,24(a4)
    uart_tx_r += 1;
    800008e2:	0785                	addi	a5,a5,1
    800008e4:	e09c                	sd	a5,0(s1)
    wakeup(&uart_tx_r);
    800008e6:	8526                	mv	a0,s1
    800008e8:	00002097          	auipc	ra,0x2
    800008ec:	b5a080e7          	jalr	-1190(ra) # 80002442 <wakeup>
    WriteReg(THR, c);
    800008f0:	016a0023          	sb	s6,0(s4) # 10000000 <_entry-0x70000000>
    if(uart_tx_w == uart_tx_r){
    800008f4:	609c                	ld	a5,0(s1)
    800008f6:	0009b703          	ld	a4,0(s3)
    800008fa:	fcf71ae3          	bne	a4,a5,800008ce <uartstart+0x4a>
  }
}
    800008fe:	70e2                	ld	ra,56(sp)
    80000900:	7442                	ld	s0,48(sp)
    80000902:	74a2                	ld	s1,40(sp)
    80000904:	7902                	ld	s2,32(sp)
    80000906:	69e2                	ld	s3,24(sp)
    80000908:	6a42                	ld	s4,16(sp)
    8000090a:	6aa2                	ld	s5,8(sp)
    8000090c:	6b02                	ld	s6,0(sp)
    8000090e:	6121                	addi	sp,sp,64
    80000910:	8082                	ret
    80000912:	8082                	ret

0000000080000914 <uartputc>:
{
    80000914:	7179                	addi	sp,sp,-48
    80000916:	f406                	sd	ra,40(sp)
    80000918:	f022                	sd	s0,32(sp)
    8000091a:	e052                	sd	s4,0(sp)
    8000091c:	1800                	addi	s0,sp,48
    8000091e:	8a2a                	mv	s4,a0
  acquire(&uart_tx_lock);
    80000920:	00014517          	auipc	a0,0x14
    80000924:	92850513          	addi	a0,a0,-1752 # 80014248 <uart_tx_lock>
    80000928:	00000097          	auipc	ra,0x0
    8000092c:	32c080e7          	jalr	812(ra) # 80000c54 <acquire>
  if(panicked){
    80000930:	0000b797          	auipc	a5,0xb
    80000934:	6d07a783          	lw	a5,1744(a5) # 8000c000 <panicked>
    80000938:	c391                	beqz	a5,8000093c <uartputc+0x28>
    for(;;)
    8000093a:	a001                	j	8000093a <uartputc+0x26>
    if(uart_tx_w == uart_tx_r + UART_TX_BUF_SIZE){
    8000093c:	0000b717          	auipc	a4,0xb
    80000940:	6d473703          	ld	a4,1748(a4) # 8000c010 <uart_tx_w>
    80000944:	0000b797          	auipc	a5,0xb
    80000948:	6c47b783          	ld	a5,1732(a5) # 8000c008 <uart_tx_r>
    8000094c:	02078793          	addi	a5,a5,32
    80000950:	04e79163          	bne	a5,a4,80000992 <uartputc+0x7e>
    80000954:	ec26                	sd	s1,24(sp)
    80000956:	e84a                	sd	s2,16(sp)
    80000958:	e44e                	sd	s3,8(sp)
      sleep(&uart_tx_r, &uart_tx_lock);
    8000095a:	00014997          	auipc	s3,0x14
    8000095e:	8ee98993          	addi	s3,s3,-1810 # 80014248 <uart_tx_lock>
    80000962:	0000b497          	auipc	s1,0xb
    80000966:	6a648493          	addi	s1,s1,1702 # 8000c008 <uart_tx_r>
    if(uart_tx_w == uart_tx_r + UART_TX_BUF_SIZE){
    8000096a:	0000b917          	auipc	s2,0xb
    8000096e:	6a690913          	addi	s2,s2,1702 # 8000c010 <uart_tx_w>
      sleep(&uart_tx_r, &uart_tx_lock);
    80000972:	85ce                	mv	a1,s3
    80000974:	8526                	mv	a0,s1
    80000976:	00002097          	auipc	ra,0x2
    8000097a:	946080e7          	jalr	-1722(ra) # 800022bc <sleep>
    if(uart_tx_w == uart_tx_r + UART_TX_BUF_SIZE){
    8000097e:	00093703          	ld	a4,0(s2)
    80000982:	609c                	ld	a5,0(s1)
    80000984:	02078793          	addi	a5,a5,32
    80000988:	fee785e3          	beq	a5,a4,80000972 <uartputc+0x5e>
    8000098c:	64e2                	ld	s1,24(sp)
    8000098e:	6942                	ld	s2,16(sp)
    80000990:	69a2                	ld	s3,8(sp)
      uart_tx_buf[uart_tx_w % UART_TX_BUF_SIZE] = c;
    80000992:	01f77693          	andi	a3,a4,31
    80000996:	00014797          	auipc	a5,0x14
    8000099a:	8b278793          	addi	a5,a5,-1870 # 80014248 <uart_tx_lock>
    8000099e:	97b6                	add	a5,a5,a3
    800009a0:	01478c23          	sb	s4,24(a5)
      uart_tx_w += 1;
    800009a4:	0705                	addi	a4,a4,1
    800009a6:	0000b797          	auipc	a5,0xb
    800009aa:	66e7b523          	sd	a4,1642(a5) # 8000c010 <uart_tx_w>
      uartstart();
    800009ae:	00000097          	auipc	ra,0x0
    800009b2:	ed6080e7          	jalr	-298(ra) # 80000884 <uartstart>
      release(&uart_tx_lock);
    800009b6:	00014517          	auipc	a0,0x14
    800009ba:	89250513          	addi	a0,a0,-1902 # 80014248 <uart_tx_lock>
    800009be:	00000097          	auipc	ra,0x0
    800009c2:	346080e7          	jalr	838(ra) # 80000d04 <release>
}
    800009c6:	70a2                	ld	ra,40(sp)
    800009c8:	7402                	ld	s0,32(sp)
    800009ca:	6a02                	ld	s4,0(sp)
    800009cc:	6145                	addi	sp,sp,48
    800009ce:	8082                	ret

00000000800009d0 <uartgetc>:

// read one input character from the UART.
// return -1 if none is waiting.
int
uartgetc(void)
{
    800009d0:	1141                	addi	sp,sp,-16
    800009d2:	e406                	sd	ra,8(sp)
    800009d4:	e022                	sd	s0,0(sp)
    800009d6:	0800                	addi	s0,sp,16
  if(ReadReg(LSR) & 0x01){
    800009d8:	100007b7          	lui	a5,0x10000
    800009dc:	0057c783          	lbu	a5,5(a5) # 10000005 <_entry-0x6ffffffb>
    800009e0:	8b85                	andi	a5,a5,1
    800009e2:	cb89                	beqz	a5,800009f4 <uartgetc+0x24>
    // input data is ready.
    return ReadReg(RHR);
    800009e4:	100007b7          	lui	a5,0x10000
    800009e8:	0007c503          	lbu	a0,0(a5) # 10000000 <_entry-0x70000000>
  } else {
    return -1;
  }
}
    800009ec:	60a2                	ld	ra,8(sp)
    800009ee:	6402                	ld	s0,0(sp)
    800009f0:	0141                	addi	sp,sp,16
    800009f2:	8082                	ret
    return -1;
    800009f4:	557d                	li	a0,-1
    800009f6:	bfdd                	j	800009ec <uartgetc+0x1c>

00000000800009f8 <uartintr>:
// handle a uart interrupt, raised because input has
// arrived, or the uart is ready for more output, or
// both. called from trap.c.
void
uartintr(void)
{
    800009f8:	1101                	addi	sp,sp,-32
    800009fa:	ec06                	sd	ra,24(sp)
    800009fc:	e822                	sd	s0,16(sp)
    800009fe:	e426                	sd	s1,8(sp)
    80000a00:	1000                	addi	s0,sp,32
  // read and process incoming characters.
  while(1){
    int c = uartgetc();
    if(c == -1)
    80000a02:	54fd                	li	s1,-1
    int c = uartgetc();
    80000a04:	00000097          	auipc	ra,0x0
    80000a08:	fcc080e7          	jalr	-52(ra) # 800009d0 <uartgetc>
    if(c == -1)
    80000a0c:	00950763          	beq	a0,s1,80000a1a <uartintr+0x22>
      break;
    consoleintr(c);
    80000a10:	00000097          	auipc	ra,0x0
    80000a14:	8ca080e7          	jalr	-1846(ra) # 800002da <consoleintr>
  while(1){
    80000a18:	b7f5                	j	80000a04 <uartintr+0xc>
  }

  // send buffered characters.
  acquire(&uart_tx_lock);
    80000a1a:	00014517          	auipc	a0,0x14
    80000a1e:	82e50513          	addi	a0,a0,-2002 # 80014248 <uart_tx_lock>
    80000a22:	00000097          	auipc	ra,0x0
    80000a26:	232080e7          	jalr	562(ra) # 80000c54 <acquire>
  uartstart();
    80000a2a:	00000097          	auipc	ra,0x0
    80000a2e:	e5a080e7          	jalr	-422(ra) # 80000884 <uartstart>
  release(&uart_tx_lock);
    80000a32:	00014517          	auipc	a0,0x14
    80000a36:	81650513          	addi	a0,a0,-2026 # 80014248 <uart_tx_lock>
    80000a3a:	00000097          	auipc	ra,0x0
    80000a3e:	2ca080e7          	jalr	714(ra) # 80000d04 <release>
}
    80000a42:	60e2                	ld	ra,24(sp)
    80000a44:	6442                	ld	s0,16(sp)
    80000a46:	64a2                	ld	s1,8(sp)
    80000a48:	6105                	addi	sp,sp,32
    80000a4a:	8082                	ret

0000000080000a4c <kfree>:
// which normally should have been returned by a
// call to kalloc().  (The exception is when
// initializing the allocator; see kinit above.)
void
kfree(void *pa)
{
    80000a4c:	1101                	addi	sp,sp,-32
    80000a4e:	ec06                	sd	ra,24(sp)
    80000a50:	e822                	sd	s0,16(sp)
    80000a52:	e426                	sd	s1,8(sp)
    80000a54:	e04a                	sd	s2,0(sp)
    80000a56:	1000                	addi	s0,sp,32
  struct run *r;

  if(((uint64)pa % PGSIZE) != 0 || (char*)pa < end || (uint64)pa >= PHYSTOP)
    80000a58:	00029797          	auipc	a5,0x29
    80000a5c:	5a878793          	addi	a5,a5,1448 # 8002a000 <end>
    80000a60:	00f53733          	sltu	a4,a0,a5
    80000a64:	47c5                	li	a5,17
    80000a66:	07ee                	slli	a5,a5,0x1b
    80000a68:	17fd                	addi	a5,a5,-1
    80000a6a:	00a7b7b3          	sltu	a5,a5,a0
    80000a6e:	8fd9                	or	a5,a5,a4
    80000a70:	e7a1                	bnez	a5,80000ab8 <kfree+0x6c>
    80000a72:	84aa                	mv	s1,a0
    80000a74:	03451793          	slli	a5,a0,0x34
    80000a78:	e3a1                	bnez	a5,80000ab8 <kfree+0x6c>
    panic("kfree");

  // Fill with junk to catch dangling refs.
  memset(pa, 1, PGSIZE);
    80000a7a:	6605                	lui	a2,0x1
    80000a7c:	4585                	li	a1,1
    80000a7e:	00000097          	auipc	ra,0x0
    80000a82:	2ce080e7          	jalr	718(ra) # 80000d4c <memset>

  r = (struct run*)pa;

  acquire(&kmem.lock);
    80000a86:	00013917          	auipc	s2,0x13
    80000a8a:	7fa90913          	addi	s2,s2,2042 # 80014280 <kmem>
    80000a8e:	854a                	mv	a0,s2
    80000a90:	00000097          	auipc	ra,0x0
    80000a94:	1c4080e7          	jalr	452(ra) # 80000c54 <acquire>
  r->next = kmem.freelist;
    80000a98:	01893783          	ld	a5,24(s2)
    80000a9c:	e09c                	sd	a5,0(s1)
  kmem.freelist = r;
    80000a9e:	00993c23          	sd	s1,24(s2)
  release(&kmem.lock);
    80000aa2:	854a                	mv	a0,s2
    80000aa4:	00000097          	auipc	ra,0x0
    80000aa8:	260080e7          	jalr	608(ra) # 80000d04 <release>
}
    80000aac:	60e2                	ld	ra,24(sp)
    80000aae:	6442                	ld	s0,16(sp)
    80000ab0:	64a2                	ld	s1,8(sp)
    80000ab2:	6902                	ld	s2,0(sp)
    80000ab4:	6105                	addi	sp,sp,32
    80000ab6:	8082                	ret
    panic("kfree");
    80000ab8:	00007517          	auipc	a0,0x7
    80000abc:	58850513          	addi	a0,a0,1416 # 80008040 <etext+0x40>
    80000ac0:	00000097          	auipc	ra,0x0
    80000ac4:	a96080e7          	jalr	-1386(ra) # 80000556 <panic>

0000000080000ac8 <freerange>:
{
    80000ac8:	7179                	addi	sp,sp,-48
    80000aca:	f406                	sd	ra,40(sp)
    80000acc:	f022                	sd	s0,32(sp)
    80000ace:	ec26                	sd	s1,24(sp)
    80000ad0:	1800                	addi	s0,sp,48
  p = (char*)PGROUNDUP((uint64)pa_start);
    80000ad2:	6785                	lui	a5,0x1
    80000ad4:	fff78713          	addi	a4,a5,-1 # fff <_entry-0x7ffff001>
    80000ad8:	00e504b3          	add	s1,a0,a4
    80000adc:	777d                	lui	a4,0xfffff
    80000ade:	8cf9                	and	s1,s1,a4
  for(; p + PGSIZE <= (char*)pa_end; p += PGSIZE)
    80000ae0:	94be                	add	s1,s1,a5
    80000ae2:	0295e463          	bltu	a1,s1,80000b0a <freerange+0x42>
    80000ae6:	e84a                	sd	s2,16(sp)
    80000ae8:	e44e                	sd	s3,8(sp)
    80000aea:	e052                	sd	s4,0(sp)
    80000aec:	892e                	mv	s2,a1
    kfree(p);
    80000aee:	8a3a                	mv	s4,a4
  for(; p + PGSIZE <= (char*)pa_end; p += PGSIZE)
    80000af0:	89be                	mv	s3,a5
    kfree(p);
    80000af2:	01448533          	add	a0,s1,s4
    80000af6:	00000097          	auipc	ra,0x0
    80000afa:	f56080e7          	jalr	-170(ra) # 80000a4c <kfree>
  for(; p + PGSIZE <= (char*)pa_end; p += PGSIZE)
    80000afe:	94ce                	add	s1,s1,s3
    80000b00:	fe9979e3          	bgeu	s2,s1,80000af2 <freerange+0x2a>
    80000b04:	6942                	ld	s2,16(sp)
    80000b06:	69a2                	ld	s3,8(sp)
    80000b08:	6a02                	ld	s4,0(sp)
}
    80000b0a:	70a2                	ld	ra,40(sp)
    80000b0c:	7402                	ld	s0,32(sp)
    80000b0e:	64e2                	ld	s1,24(sp)
    80000b10:	6145                	addi	sp,sp,48
    80000b12:	8082                	ret

0000000080000b14 <kinit>:
{
    80000b14:	1141                	addi	sp,sp,-16
    80000b16:	e406                	sd	ra,8(sp)
    80000b18:	e022                	sd	s0,0(sp)
    80000b1a:	0800                	addi	s0,sp,16
  initlock(&kmem.lock, "kmem");
    80000b1c:	00007597          	auipc	a1,0x7
    80000b20:	52c58593          	addi	a1,a1,1324 # 80008048 <etext+0x48>
    80000b24:	00013517          	auipc	a0,0x13
    80000b28:	75c50513          	addi	a0,a0,1884 # 80014280 <kmem>
    80000b2c:	00000097          	auipc	ra,0x0
    80000b30:	08e080e7          	jalr	142(ra) # 80000bba <initlock>
  freerange(end, (void*)PHYSTOP);
    80000b34:	45c5                	li	a1,17
    80000b36:	05ee                	slli	a1,a1,0x1b
    80000b38:	00029517          	auipc	a0,0x29
    80000b3c:	4c850513          	addi	a0,a0,1224 # 8002a000 <end>
    80000b40:	00000097          	auipc	ra,0x0
    80000b44:	f88080e7          	jalr	-120(ra) # 80000ac8 <freerange>
}
    80000b48:	60a2                	ld	ra,8(sp)
    80000b4a:	6402                	ld	s0,0(sp)
    80000b4c:	0141                	addi	sp,sp,16
    80000b4e:	8082                	ret

0000000080000b50 <kalloc>:
// Allocate one 4096-byte page of physical memory.
// Returns a pointer that the kernel can use.
// Returns 0 if the memory cannot be allocated.
void *
kalloc(void)
{
    80000b50:	1101                	addi	sp,sp,-32
    80000b52:	ec06                	sd	ra,24(sp)
    80000b54:	e822                	sd	s0,16(sp)
    80000b56:	e426                	sd	s1,8(sp)
    80000b58:	1000                	addi	s0,sp,32
  struct run *r;

  acquire(&kmem.lock);
    80000b5a:	00013517          	auipc	a0,0x13
    80000b5e:	72650513          	addi	a0,a0,1830 # 80014280 <kmem>
    80000b62:	00000097          	auipc	ra,0x0
    80000b66:	0f2080e7          	jalr	242(ra) # 80000c54 <acquire>
  r = kmem.freelist;
    80000b6a:	00013497          	auipc	s1,0x13
    80000b6e:	72e4b483          	ld	s1,1838(s1) # 80014298 <kmem+0x18>
  if(r)
    80000b72:	c89d                	beqz	s1,80000ba8 <kalloc+0x58>
    kmem.freelist = r->next;
    80000b74:	609c                	ld	a5,0(s1)
    80000b76:	00013717          	auipc	a4,0x13
    80000b7a:	72f73123          	sd	a5,1826(a4) # 80014298 <kmem+0x18>
  release(&kmem.lock);
    80000b7e:	00013517          	auipc	a0,0x13
    80000b82:	70250513          	addi	a0,a0,1794 # 80014280 <kmem>
    80000b86:	00000097          	auipc	ra,0x0
    80000b8a:	17e080e7          	jalr	382(ra) # 80000d04 <release>

  if(r)
    memset((char*)r, 5, PGSIZE); // fill with junk
    80000b8e:	6605                	lui	a2,0x1
    80000b90:	4595                	li	a1,5
    80000b92:	8526                	mv	a0,s1
    80000b94:	00000097          	auipc	ra,0x0
    80000b98:	1b8080e7          	jalr	440(ra) # 80000d4c <memset>
  return (void*)r;
}
    80000b9c:	8526                	mv	a0,s1
    80000b9e:	60e2                	ld	ra,24(sp)
    80000ba0:	6442                	ld	s0,16(sp)
    80000ba2:	64a2                	ld	s1,8(sp)
    80000ba4:	6105                	addi	sp,sp,32
    80000ba6:	8082                	ret
  release(&kmem.lock);
    80000ba8:	00013517          	auipc	a0,0x13
    80000bac:	6d850513          	addi	a0,a0,1752 # 80014280 <kmem>
    80000bb0:	00000097          	auipc	ra,0x0
    80000bb4:	154080e7          	jalr	340(ra) # 80000d04 <release>
  if(r)
    80000bb8:	b7d5                	j	80000b9c <kalloc+0x4c>

0000000080000bba <initlock>:
#include "proc.h"
#include "defs.h"

void
initlock(struct spinlock *lk, char *name)
{
    80000bba:	1141                	addi	sp,sp,-16
    80000bbc:	e406                	sd	ra,8(sp)
    80000bbe:	e022                	sd	s0,0(sp)
    80000bc0:	0800                	addi	s0,sp,16
  lk->name = name;
    80000bc2:	e50c                	sd	a1,8(a0)
  lk->locked = 0;
    80000bc4:	00052023          	sw	zero,0(a0)
  lk->cpu = 0;
    80000bc8:	00053823          	sd	zero,16(a0)
}
    80000bcc:	60a2                	ld	ra,8(sp)
    80000bce:	6402                	ld	s0,0(sp)
    80000bd0:	0141                	addi	sp,sp,16
    80000bd2:	8082                	ret

0000000080000bd4 <holding>:
// Interrupts must be off.
int
holding(struct spinlock *lk)
{
  int r;
  r = (lk->locked && lk->cpu == mycpu());
    80000bd4:	411c                	lw	a5,0(a0)
    80000bd6:	e399                	bnez	a5,80000bdc <holding+0x8>
    80000bd8:	4501                	li	a0,0
  return r;
}
    80000bda:	8082                	ret
{
    80000bdc:	1101                	addi	sp,sp,-32
    80000bde:	ec06                	sd	ra,24(sp)
    80000be0:	e822                	sd	s0,16(sp)
    80000be2:	e426                	sd	s1,8(sp)
    80000be4:	1000                	addi	s0,sp,32
  r = (lk->locked && lk->cpu == mycpu());
    80000be6:	691c                	ld	a5,16(a0)
    80000be8:	84be                	mv	s1,a5
    80000bea:	00001097          	auipc	ra,0x1
    80000bee:	e7c080e7          	jalr	-388(ra) # 80001a66 <mycpu>
    80000bf2:	40a48533          	sub	a0,s1,a0
    80000bf6:	00153513          	seqz	a0,a0
}
    80000bfa:	60e2                	ld	ra,24(sp)
    80000bfc:	6442                	ld	s0,16(sp)
    80000bfe:	64a2                	ld	s1,8(sp)
    80000c00:	6105                	addi	sp,sp,32
    80000c02:	8082                	ret

0000000080000c04 <push_off>:
// it takes two pop_off()s to undo two push_off()s.  Also, if interrupts
// are initially off, then push_off, pop_off leaves them off.

void
push_off(void)
{
    80000c04:	1101                	addi	sp,sp,-32
    80000c06:	ec06                	sd	ra,24(sp)
    80000c08:	e822                	sd	s0,16(sp)
    80000c0a:	e426                	sd	s1,8(sp)
    80000c0c:	1000                	addi	s0,sp,32

static inline uint64
r_sstatus()
{
  uint64 x;
  asm volatile("csrr %0, sstatus" : "=r" (x) );
    80000c0e:	100027f3          	csrr	a5,sstatus
    80000c12:	84be                	mv	s1,a5
    80000c14:	100027f3          	csrr	a5,sstatus

// disable device interrupts
static inline void
intr_off()
{
  w_sstatus(r_sstatus() & ~SSTATUS_SIE);
    80000c18:	9bf5                	andi	a5,a5,-3
  asm volatile("csrw sstatus, %0" : : "r" (x));
    80000c1a:	10079073          	csrw	sstatus,a5
  int old = intr_get();

  intr_off();
  if(mycpu()->noff == 0)
    80000c1e:	00001097          	auipc	ra,0x1
    80000c22:	e48080e7          	jalr	-440(ra) # 80001a66 <mycpu>
    80000c26:	5d3c                	lw	a5,120(a0)
    80000c28:	cf89                	beqz	a5,80000c42 <push_off+0x3e>
    mycpu()->intena = old;
  mycpu()->noff += 1;
    80000c2a:	00001097          	auipc	ra,0x1
    80000c2e:	e3c080e7          	jalr	-452(ra) # 80001a66 <mycpu>
    80000c32:	5d3c                	lw	a5,120(a0)
    80000c34:	2785                	addiw	a5,a5,1
    80000c36:	dd3c                	sw	a5,120(a0)
}
    80000c38:	60e2                	ld	ra,24(sp)
    80000c3a:	6442                	ld	s0,16(sp)
    80000c3c:	64a2                	ld	s1,8(sp)
    80000c3e:	6105                	addi	sp,sp,32
    80000c40:	8082                	ret
    mycpu()->intena = old;
    80000c42:	00001097          	auipc	ra,0x1
    80000c46:	e24080e7          	jalr	-476(ra) # 80001a66 <mycpu>
// are device interrupts enabled?
static inline int
intr_get()
{
  uint64 x = r_sstatus();
  return (x & SSTATUS_SIE) != 0;
    80000c4a:	0014d793          	srli	a5,s1,0x1
    80000c4e:	8b85                	andi	a5,a5,1
    80000c50:	dd7c                	sw	a5,124(a0)
    80000c52:	bfe1                	j	80000c2a <push_off+0x26>

0000000080000c54 <acquire>:
{
    80000c54:	1101                	addi	sp,sp,-32
    80000c56:	ec06                	sd	ra,24(sp)
    80000c58:	e822                	sd	s0,16(sp)
    80000c5a:	e426                	sd	s1,8(sp)
    80000c5c:	1000                	addi	s0,sp,32
    80000c5e:	84aa                	mv	s1,a0
  push_off(); // disable interrupts to avoid deadlock.
    80000c60:	00000097          	auipc	ra,0x0
    80000c64:	fa4080e7          	jalr	-92(ra) # 80000c04 <push_off>
  if(holding(lk))
    80000c68:	8526                	mv	a0,s1
    80000c6a:	00000097          	auipc	ra,0x0
    80000c6e:	f6a080e7          	jalr	-150(ra) # 80000bd4 <holding>
  while(__sync_lock_test_and_set(&lk->locked, 1) != 0)
    80000c72:	4705                	li	a4,1
  if(holding(lk))
    80000c74:	e115                	bnez	a0,80000c98 <acquire+0x44>
  while(__sync_lock_test_and_set(&lk->locked, 1) != 0)
    80000c76:	87ba                	mv	a5,a4
    80000c78:	0cf4a7af          	amoswap.w.aq	a5,a5,(s1)
    80000c7c:	2781                	sext.w	a5,a5
    80000c7e:	ffe5                	bnez	a5,80000c76 <acquire+0x22>
  __sync_synchronize();
    80000c80:	0330000f          	fence	rw,rw
  lk->cpu = mycpu();
    80000c84:	00001097          	auipc	ra,0x1
    80000c88:	de2080e7          	jalr	-542(ra) # 80001a66 <mycpu>
    80000c8c:	e888                	sd	a0,16(s1)
}
    80000c8e:	60e2                	ld	ra,24(sp)
    80000c90:	6442                	ld	s0,16(sp)
    80000c92:	64a2                	ld	s1,8(sp)
    80000c94:	6105                	addi	sp,sp,32
    80000c96:	8082                	ret
    panic("acquire");
    80000c98:	00007517          	auipc	a0,0x7
    80000c9c:	3b850513          	addi	a0,a0,952 # 80008050 <etext+0x50>
    80000ca0:	00000097          	auipc	ra,0x0
    80000ca4:	8b6080e7          	jalr	-1866(ra) # 80000556 <panic>

0000000080000ca8 <pop_off>:

void
pop_off(void)
{
    80000ca8:	1141                	addi	sp,sp,-16
    80000caa:	e406                	sd	ra,8(sp)
    80000cac:	e022                	sd	s0,0(sp)
    80000cae:	0800                	addi	s0,sp,16
  struct cpu *c = mycpu();
    80000cb0:	00001097          	auipc	ra,0x1
    80000cb4:	db6080e7          	jalr	-586(ra) # 80001a66 <mycpu>
  asm volatile("csrr %0, sstatus" : "=r" (x) );
    80000cb8:	100027f3          	csrr	a5,sstatus
  return (x & SSTATUS_SIE) != 0;
    80000cbc:	8b89                	andi	a5,a5,2
  if(intr_get())
    80000cbe:	e39d                	bnez	a5,80000ce4 <pop_off+0x3c>
    panic("pop_off - interruptible");
  if(c->noff < 1)
    80000cc0:	5d3c                	lw	a5,120(a0)
    80000cc2:	02f05963          	blez	a5,80000cf4 <pop_off+0x4c>
    panic("pop_off");
  c->noff -= 1;
    80000cc6:	37fd                	addiw	a5,a5,-1
    80000cc8:	dd3c                	sw	a5,120(a0)
  if(c->noff == 0 && c->intena)
    80000cca:	eb89                	bnez	a5,80000cdc <pop_off+0x34>
    80000ccc:	5d7c                	lw	a5,124(a0)
    80000cce:	c799                	beqz	a5,80000cdc <pop_off+0x34>
  asm volatile("csrr %0, sstatus" : "=r" (x) );
    80000cd0:	100027f3          	csrr	a5,sstatus
  w_sstatus(r_sstatus() | SSTATUS_SIE);
    80000cd4:	0027e793          	ori	a5,a5,2
  asm volatile("csrw sstatus, %0" : : "r" (x));
    80000cd8:	10079073          	csrw	sstatus,a5
    intr_on();
}
    80000cdc:	60a2                	ld	ra,8(sp)
    80000cde:	6402                	ld	s0,0(sp)
    80000ce0:	0141                	addi	sp,sp,16
    80000ce2:	8082                	ret
    panic("pop_off - interruptible");
    80000ce4:	00007517          	auipc	a0,0x7
    80000ce8:	37450513          	addi	a0,a0,884 # 80008058 <etext+0x58>
    80000cec:	00000097          	auipc	ra,0x0
    80000cf0:	86a080e7          	jalr	-1942(ra) # 80000556 <panic>
    panic("pop_off");
    80000cf4:	00007517          	auipc	a0,0x7
    80000cf8:	37c50513          	addi	a0,a0,892 # 80008070 <etext+0x70>
    80000cfc:	00000097          	auipc	ra,0x0
    80000d00:	85a080e7          	jalr	-1958(ra) # 80000556 <panic>

0000000080000d04 <release>:
{
    80000d04:	1101                	addi	sp,sp,-32
    80000d06:	ec06                	sd	ra,24(sp)
    80000d08:	e822                	sd	s0,16(sp)
    80000d0a:	e426                	sd	s1,8(sp)
    80000d0c:	1000                	addi	s0,sp,32
    80000d0e:	84aa                	mv	s1,a0
  if(!holding(lk))
    80000d10:	00000097          	auipc	ra,0x0
    80000d14:	ec4080e7          	jalr	-316(ra) # 80000bd4 <holding>
    80000d18:	c115                	beqz	a0,80000d3c <release+0x38>
  lk->cpu = 0;
    80000d1a:	0004b823          	sd	zero,16(s1)
  __sync_synchronize();
    80000d1e:	0330000f          	fence	rw,rw
  __sync_lock_release(&lk->locked);
    80000d22:	0310000f          	fence	rw,w
    80000d26:	0004a023          	sw	zero,0(s1)
  pop_off();
    80000d2a:	00000097          	auipc	ra,0x0
    80000d2e:	f7e080e7          	jalr	-130(ra) # 80000ca8 <pop_off>
}
    80000d32:	60e2                	ld	ra,24(sp)
    80000d34:	6442                	ld	s0,16(sp)
    80000d36:	64a2                	ld	s1,8(sp)
    80000d38:	6105                	addi	sp,sp,32
    80000d3a:	8082                	ret
    panic("release");
    80000d3c:	00007517          	auipc	a0,0x7
    80000d40:	33c50513          	addi	a0,a0,828 # 80008078 <etext+0x78>
    80000d44:	00000097          	auipc	ra,0x0
    80000d48:	812080e7          	jalr	-2030(ra) # 80000556 <panic>

0000000080000d4c <memset>:
#include "types.h"

void*
memset(void *dst, int c, uint n)
{
    80000d4c:	1141                	addi	sp,sp,-16
    80000d4e:	e406                	sd	ra,8(sp)
    80000d50:	e022                	sd	s0,0(sp)
    80000d52:	0800                	addi	s0,sp,16
  char *cdst = (char *) dst;
  int i;
  for(i = 0; i < n; i++){
    80000d54:	ca19                	beqz	a2,80000d6a <memset+0x1e>
    80000d56:	87aa                	mv	a5,a0
    80000d58:	1602                	slli	a2,a2,0x20
    80000d5a:	9201                	srli	a2,a2,0x20
    80000d5c:	00a60733          	add	a4,a2,a0
    cdst[i] = c;
    80000d60:	00b78023          	sb	a1,0(a5)
  for(i = 0; i < n; i++){
    80000d64:	0785                	addi	a5,a5,1
    80000d66:	fee79de3          	bne	a5,a4,80000d60 <memset+0x14>
  }
  return dst;
}
    80000d6a:	60a2                	ld	ra,8(sp)
    80000d6c:	6402                	ld	s0,0(sp)
    80000d6e:	0141                	addi	sp,sp,16
    80000d70:	8082                	ret

0000000080000d72 <memcmp>:

int
memcmp(const void *v1, const void *v2, uint n)
{
    80000d72:	1141                	addi	sp,sp,-16
    80000d74:	e406                	sd	ra,8(sp)
    80000d76:	e022                	sd	s0,0(sp)
    80000d78:	0800                	addi	s0,sp,16
  const uchar *s1, *s2;

  s1 = v1;
  s2 = v2;
  while(n-- > 0){
    80000d7a:	c61d                	beqz	a2,80000da8 <memcmp+0x36>
    80000d7c:	1602                	slli	a2,a2,0x20
    80000d7e:	9201                	srli	a2,a2,0x20
    80000d80:	00c506b3          	add	a3,a0,a2
    if(*s1 != *s2)
    80000d84:	00054783          	lbu	a5,0(a0)
    80000d88:	0005c703          	lbu	a4,0(a1)
    80000d8c:	00e79863          	bne	a5,a4,80000d9c <memcmp+0x2a>
      return *s1 - *s2;
    s1++, s2++;
    80000d90:	0505                	addi	a0,a0,1
    80000d92:	0585                	addi	a1,a1,1
  while(n-- > 0){
    80000d94:	fed518e3          	bne	a0,a3,80000d84 <memcmp+0x12>
  }

  return 0;
    80000d98:	4501                	li	a0,0
    80000d9a:	a019                	j	80000da0 <memcmp+0x2e>
      return *s1 - *s2;
    80000d9c:	40e7853b          	subw	a0,a5,a4
}
    80000da0:	60a2                	ld	ra,8(sp)
    80000da2:	6402                	ld	s0,0(sp)
    80000da4:	0141                	addi	sp,sp,16
    80000da6:	8082                	ret
  return 0;
    80000da8:	4501                	li	a0,0
    80000daa:	bfdd                	j	80000da0 <memcmp+0x2e>

0000000080000dac <memmove>:

void*
memmove(void *dst, const void *src, uint n)
{
    80000dac:	1141                	addi	sp,sp,-16
    80000dae:	e406                	sd	ra,8(sp)
    80000db0:	e022                	sd	s0,0(sp)
    80000db2:	0800                	addi	s0,sp,16
  const char *s;
  char *d;

  if(n == 0)
    80000db4:	c205                	beqz	a2,80000dd4 <memmove+0x28>
    return dst;
  
  s = src;
  d = dst;
  if(s < d && s + n > d){
    80000db6:	02a5e363          	bltu	a1,a0,80000ddc <memmove+0x30>
    s += n;
    d += n;
    while(n-- > 0)
      *--d = *--s;
  } else
    while(n-- > 0)
    80000dba:	1602                	slli	a2,a2,0x20
    80000dbc:	9201                	srli	a2,a2,0x20
    80000dbe:	00c587b3          	add	a5,a1,a2
{
    80000dc2:	872a                	mv	a4,a0
      *d++ = *s++;
    80000dc4:	0585                	addi	a1,a1,1
    80000dc6:	0705                	addi	a4,a4,1
    80000dc8:	fff5c683          	lbu	a3,-1(a1)
    80000dcc:	fed70fa3          	sb	a3,-1(a4)
    while(n-- > 0)
    80000dd0:	feb79ae3          	bne	a5,a1,80000dc4 <memmove+0x18>

  return dst;
}
    80000dd4:	60a2                	ld	ra,8(sp)
    80000dd6:	6402                	ld	s0,0(sp)
    80000dd8:	0141                	addi	sp,sp,16
    80000dda:	8082                	ret
  if(s < d && s + n > d){
    80000ddc:	02061693          	slli	a3,a2,0x20
    80000de0:	9281                	srli	a3,a3,0x20
    80000de2:	00d58733          	add	a4,a1,a3
    80000de6:	fce57ae3          	bgeu	a0,a4,80000dba <memmove+0xe>
    d += n;
    80000dea:	96aa                	add	a3,a3,a0
    while(n-- > 0)
    80000dec:	fff6079b          	addiw	a5,a2,-1 # fff <_entry-0x7ffff001>
    80000df0:	1782                	slli	a5,a5,0x20
    80000df2:	9381                	srli	a5,a5,0x20
    80000df4:	fff7c793          	not	a5,a5
    80000df8:	97ba                	add	a5,a5,a4
      *--d = *--s;
    80000dfa:	177d                	addi	a4,a4,-1
    80000dfc:	16fd                	addi	a3,a3,-1
    80000dfe:	00074603          	lbu	a2,0(a4)
    80000e02:	00c68023          	sb	a2,0(a3)
    while(n-- > 0)
    80000e06:	fee79ae3          	bne	a5,a4,80000dfa <memmove+0x4e>
    80000e0a:	b7e9                	j	80000dd4 <memmove+0x28>

0000000080000e0c <memcpy>:

// memcpy exists to placate GCC.  Use memmove.
void*
memcpy(void *dst, const void *src, uint n)
{
    80000e0c:	1141                	addi	sp,sp,-16
    80000e0e:	e406                	sd	ra,8(sp)
    80000e10:	e022                	sd	s0,0(sp)
    80000e12:	0800                	addi	s0,sp,16
  return memmove(dst, src, n);
    80000e14:	00000097          	auipc	ra,0x0
    80000e18:	f98080e7          	jalr	-104(ra) # 80000dac <memmove>
}
    80000e1c:	60a2                	ld	ra,8(sp)
    80000e1e:	6402                	ld	s0,0(sp)
    80000e20:	0141                	addi	sp,sp,16
    80000e22:	8082                	ret

0000000080000e24 <strncmp>:

int
strncmp(const char *p, const char *q, uint n)
{
    80000e24:	1141                	addi	sp,sp,-16
    80000e26:	e406                	sd	ra,8(sp)
    80000e28:	e022                	sd	s0,0(sp)
    80000e2a:	0800                	addi	s0,sp,16
  while(n > 0 && *p && *p == *q)
    80000e2c:	ce11                	beqz	a2,80000e48 <strncmp+0x24>
    80000e2e:	00054783          	lbu	a5,0(a0)
    80000e32:	cf89                	beqz	a5,80000e4c <strncmp+0x28>
    80000e34:	0005c703          	lbu	a4,0(a1)
    80000e38:	00f71a63          	bne	a4,a5,80000e4c <strncmp+0x28>
    n--, p++, q++;
    80000e3c:	367d                	addiw	a2,a2,-1
    80000e3e:	0505                	addi	a0,a0,1
    80000e40:	0585                	addi	a1,a1,1
  while(n > 0 && *p && *p == *q)
    80000e42:	f675                	bnez	a2,80000e2e <strncmp+0xa>
  if(n == 0)
    return 0;
    80000e44:	4501                	li	a0,0
    80000e46:	a801                	j	80000e56 <strncmp+0x32>
    80000e48:	4501                	li	a0,0
    80000e4a:	a031                	j	80000e56 <strncmp+0x32>
  return (uchar)*p - (uchar)*q;
    80000e4c:	00054503          	lbu	a0,0(a0)
    80000e50:	0005c783          	lbu	a5,0(a1)
    80000e54:	9d1d                	subw	a0,a0,a5
}
    80000e56:	60a2                	ld	ra,8(sp)
    80000e58:	6402                	ld	s0,0(sp)
    80000e5a:	0141                	addi	sp,sp,16
    80000e5c:	8082                	ret

0000000080000e5e <strncpy>:

char*
strncpy(char *s, const char *t, int n)
{
    80000e5e:	1141                	addi	sp,sp,-16
    80000e60:	e406                	sd	ra,8(sp)
    80000e62:	e022                	sd	s0,0(sp)
    80000e64:	0800                	addi	s0,sp,16
  char *os;

  os = s;
  while(n-- > 0 && (*s++ = *t++) != 0)
    80000e66:	87aa                	mv	a5,a0
    80000e68:	a011                	j	80000e6c <strncpy+0xe>
    80000e6a:	8636                	mv	a2,a3
    80000e6c:	02c05863          	blez	a2,80000e9c <strncpy+0x3e>
    80000e70:	fff6069b          	addiw	a3,a2,-1
    80000e74:	8836                	mv	a6,a3
    80000e76:	0785                	addi	a5,a5,1
    80000e78:	0005c703          	lbu	a4,0(a1)
    80000e7c:	fee78fa3          	sb	a4,-1(a5)
    80000e80:	0585                	addi	a1,a1,1
    80000e82:	f765                	bnez	a4,80000e6a <strncpy+0xc>
    ;
  while(n-- > 0)
    80000e84:	873e                	mv	a4,a5
    80000e86:	01005b63          	blez	a6,80000e9c <strncpy+0x3e>
    80000e8a:	9fb1                	addw	a5,a5,a2
    80000e8c:	37fd                	addiw	a5,a5,-1
    *s++ = 0;
    80000e8e:	0705                	addi	a4,a4,1
    80000e90:	fe070fa3          	sb	zero,-1(a4)
  while(n-- > 0)
    80000e94:	40e786bb          	subw	a3,a5,a4
    80000e98:	fed04be3          	bgtz	a3,80000e8e <strncpy+0x30>
  return os;
}
    80000e9c:	60a2                	ld	ra,8(sp)
    80000e9e:	6402                	ld	s0,0(sp)
    80000ea0:	0141                	addi	sp,sp,16
    80000ea2:	8082                	ret

0000000080000ea4 <safestrcpy>:

// Like strncpy but guaranteed to NUL-terminate.
char*
safestrcpy(char *s, const char *t, int n)
{
    80000ea4:	1141                	addi	sp,sp,-16
    80000ea6:	e406                	sd	ra,8(sp)
    80000ea8:	e022                	sd	s0,0(sp)
    80000eaa:	0800                	addi	s0,sp,16
  char *os;

  os = s;
  if(n <= 0)
    80000eac:	02c05363          	blez	a2,80000ed2 <safestrcpy+0x2e>
    80000eb0:	fff6069b          	addiw	a3,a2,-1
    80000eb4:	1682                	slli	a3,a3,0x20
    80000eb6:	9281                	srli	a3,a3,0x20
    80000eb8:	96ae                	add	a3,a3,a1
    80000eba:	87aa                	mv	a5,a0
    return os;
  while(--n > 0 && (*s++ = *t++) != 0)
    80000ebc:	00d58963          	beq	a1,a3,80000ece <safestrcpy+0x2a>
    80000ec0:	0585                	addi	a1,a1,1
    80000ec2:	0785                	addi	a5,a5,1
    80000ec4:	fff5c703          	lbu	a4,-1(a1)
    80000ec8:	fee78fa3          	sb	a4,-1(a5)
    80000ecc:	fb65                	bnez	a4,80000ebc <safestrcpy+0x18>
    ;
  *s = 0;
    80000ece:	00078023          	sb	zero,0(a5)
  return os;
}
    80000ed2:	60a2                	ld	ra,8(sp)
    80000ed4:	6402                	ld	s0,0(sp)
    80000ed6:	0141                	addi	sp,sp,16
    80000ed8:	8082                	ret

0000000080000eda <strlen>:

int
strlen(const char *s)
{
    80000eda:	1141                	addi	sp,sp,-16
    80000edc:	e406                	sd	ra,8(sp)
    80000ede:	e022                	sd	s0,0(sp)
    80000ee0:	0800                	addi	s0,sp,16
  int n;

  for(n = 0; s[n]; n++)
    80000ee2:	00054783          	lbu	a5,0(a0)
    80000ee6:	cf91                	beqz	a5,80000f02 <strlen+0x28>
    80000ee8:	00150793          	addi	a5,a0,1
    80000eec:	86be                	mv	a3,a5
    80000eee:	0785                	addi	a5,a5,1
    80000ef0:	fff7c703          	lbu	a4,-1(a5)
    80000ef4:	ff65                	bnez	a4,80000eec <strlen+0x12>
    80000ef6:	40a6853b          	subw	a0,a3,a0
    ;
  return n;
}
    80000efa:	60a2                	ld	ra,8(sp)
    80000efc:	6402                	ld	s0,0(sp)
    80000efe:	0141                	addi	sp,sp,16
    80000f00:	8082                	ret
  for(n = 0; s[n]; n++)
    80000f02:	4501                	li	a0,0
    80000f04:	bfdd                	j	80000efa <strlen+0x20>

0000000080000f06 <main>:
volatile static int started = 0;

// start() jumps here in supervisor mode on all CPUs.
void
main()
{
    80000f06:	1141                	addi	sp,sp,-16
    80000f08:	e406                	sd	ra,8(sp)
    80000f0a:	e022                	sd	s0,0(sp)
    80000f0c:	0800                	addi	s0,sp,16
  if(cpuid() == 0){
    80000f0e:	00001097          	auipc	ra,0x1
    80000f12:	b44080e7          	jalr	-1212(ra) # 80001a52 <cpuid>
    virtio_disk_init(); // emulated hard disk
    userinit();      // first user process
    __sync_synchronize();
    started = 1;
  } else {
    while(started == 0)
    80000f16:	0000b717          	auipc	a4,0xb
    80000f1a:	10270713          	addi	a4,a4,258 # 8000c018 <started>
  if(cpuid() == 0){
    80000f1e:	c139                	beqz	a0,80000f64 <main+0x5e>
    while(started == 0)
    80000f20:	431c                	lw	a5,0(a4)
    80000f22:	2781                	sext.w	a5,a5
    80000f24:	dff5                	beqz	a5,80000f20 <main+0x1a>
      ;
    __sync_synchronize();
    80000f26:	0330000f          	fence	rw,rw
    printf("hart %d starting\n", cpuid());
    80000f2a:	00001097          	auipc	ra,0x1
    80000f2e:	b28080e7          	jalr	-1240(ra) # 80001a52 <cpuid>
    80000f32:	85aa                	mv	a1,a0
    80000f34:	00007517          	auipc	a0,0x7
    80000f38:	16450513          	addi	a0,a0,356 # 80008098 <etext+0x98>
    80000f3c:	fffff097          	auipc	ra,0xfffff
    80000f40:	664080e7          	jalr	1636(ra) # 800005a0 <printf>
    kvminithart();    // turn on paging
    80000f44:	00000097          	auipc	ra,0x0
    80000f48:	0d8080e7          	jalr	216(ra) # 8000101c <kvminithart>
    trapinithart();   // install kernel trap vector
    80000f4c:	00002097          	auipc	ra,0x2
    80000f50:	b86080e7          	jalr	-1146(ra) # 80002ad2 <trapinithart>
    plicinithart();   // ask PLIC for device interrupts
    80000f54:	00005097          	auipc	ra,0x5
    80000f58:	430080e7          	jalr	1072(ra) # 80006384 <plicinithart>
  }

  scheduler();        
    80000f5c:	00001097          	auipc	ra,0x1
    80000f60:	0d4080e7          	jalr	212(ra) # 80002030 <scheduler>
    consoleinit();
    80000f64:	fffff097          	auipc	ra,0xfffff
    80000f68:	508080e7          	jalr	1288(ra) # 8000046c <consoleinit>
    printfinit();
    80000f6c:	00000097          	auipc	ra,0x0
    80000f70:	83e080e7          	jalr	-1986(ra) # 800007aa <printfinit>
    printf("\n");
    80000f74:	00007517          	auipc	a0,0x7
    80000f78:	09c50513          	addi	a0,a0,156 # 80008010 <etext+0x10>
    80000f7c:	fffff097          	auipc	ra,0xfffff
    80000f80:	624080e7          	jalr	1572(ra) # 800005a0 <printf>
    printf("xv6 kernel is booting\n");
    80000f84:	00007517          	auipc	a0,0x7
    80000f88:	0fc50513          	addi	a0,a0,252 # 80008080 <etext+0x80>
    80000f8c:	fffff097          	auipc	ra,0xfffff
    80000f90:	614080e7          	jalr	1556(ra) # 800005a0 <printf>
    printf("\n");
    80000f94:	00007517          	auipc	a0,0x7
    80000f98:	07c50513          	addi	a0,a0,124 # 80008010 <etext+0x10>
    80000f9c:	fffff097          	auipc	ra,0xfffff
    80000fa0:	604080e7          	jalr	1540(ra) # 800005a0 <printf>
    kinit();         // physical page allocator
    80000fa4:	00000097          	auipc	ra,0x0
    80000fa8:	b70080e7          	jalr	-1168(ra) # 80000b14 <kinit>
    kvminit();       // create kernel page table
    80000fac:	00000097          	auipc	ra,0x0
    80000fb0:	320080e7          	jalr	800(ra) # 800012cc <kvminit>
    kvminithart();   // turn on paging
    80000fb4:	00000097          	auipc	ra,0x0
    80000fb8:	068080e7          	jalr	104(ra) # 8000101c <kvminithart>
    procinit();      // process table
    80000fbc:	00001097          	auipc	ra,0x1
    80000fc0:	9d8080e7          	jalr	-1576(ra) # 80001994 <procinit>
    trapinit();      // trap vectors
    80000fc4:	00002097          	auipc	ra,0x2
    80000fc8:	ae6080e7          	jalr	-1306(ra) # 80002aaa <trapinit>
    trapinithart();  // install kernel trap vector
    80000fcc:	00002097          	auipc	ra,0x2
    80000fd0:	b06080e7          	jalr	-1274(ra) # 80002ad2 <trapinithart>
    plicinit();      // set up interrupt controller
    80000fd4:	00005097          	auipc	ra,0x5
    80000fd8:	396080e7          	jalr	918(ra) # 8000636a <plicinit>
    plicinithart();  // ask PLIC for device interrupts
    80000fdc:	00005097          	auipc	ra,0x5
    80000fe0:	3a8080e7          	jalr	936(ra) # 80006384 <plicinithart>
    binit();         // buffer cache
    80000fe4:	00002097          	auipc	ra,0x2
    80000fe8:	45e080e7          	jalr	1118(ra) # 80003442 <binit>
    iinit();         // inode table
    80000fec:	00003097          	auipc	ra,0x3
    80000ff0:	abc080e7          	jalr	-1348(ra) # 80003aa8 <iinit>
    fileinit();      // file table
    80000ff4:	00004097          	auipc	ra,0x4
    80000ff8:	a9e080e7          	jalr	-1378(ra) # 80004a92 <fileinit>
    virtio_disk_init(); // emulated hard disk
    80000ffc:	00005097          	auipc	ra,0x5
    80001000:	4a8080e7          	jalr	1192(ra) # 800064a4 <virtio_disk_init>
    userinit();      // first user process
    80001004:	00001097          	auipc	ra,0x1
    80001008:	d90080e7          	jalr	-624(ra) # 80001d94 <userinit>
    __sync_synchronize();
    8000100c:	0330000f          	fence	rw,rw
    started = 1;
    80001010:	4785                	li	a5,1
    80001012:	0000b717          	auipc	a4,0xb
    80001016:	00f72323          	sw	a5,6(a4) # 8000c018 <started>
    8000101a:	b789                	j	80000f5c <main+0x56>

000000008000101c <kvminithart>:

// Switch h/w page table register to the kernel's page table,
// and enable paging.
void
kvminithart()
{
    8000101c:	1141                	addi	sp,sp,-16
    8000101e:	e406                	sd	ra,8(sp)
    80001020:	e022                	sd	s0,0(sp)
    80001022:	0800                	addi	s0,sp,16
  w_satp(MAKE_SATP(kernel_pagetable));
    80001024:	0000b797          	auipc	a5,0xb
    80001028:	ffc7b783          	ld	a5,-4(a5) # 8000c020 <kernel_pagetable>
    8000102c:	83b1                	srli	a5,a5,0xc
    8000102e:	577d                	li	a4,-1
    80001030:	177e                	slli	a4,a4,0x3f
    80001032:	8fd9                	or	a5,a5,a4
  asm volatile("csrw satp, %0" : : "r" (x));
    80001034:	18079073          	csrw	satp,a5
// flush the TLB.
static inline void
sfence_vma()
{
  // the zero, zero means flush all TLB entries.
  asm volatile("sfence.vma zero, zero");
    80001038:	12000073          	sfence.vma
  sfence_vma();
}
    8000103c:	60a2                	ld	ra,8(sp)
    8000103e:	6402                	ld	s0,0(sp)
    80001040:	0141                	addi	sp,sp,16
    80001042:	8082                	ret

0000000080001044 <walk>:
//   21..29 -- 9 bits of level-1 index.
//   12..20 -- 9 bits of level-0 index.
//    0..11 -- 12 bits of byte offset within the page.
pte_t *
walk(pagetable_t pagetable, uint64 va, int alloc)
{
    80001044:	7139                	addi	sp,sp,-64
    80001046:	fc06                	sd	ra,56(sp)
    80001048:	f822                	sd	s0,48(sp)
    8000104a:	f426                	sd	s1,40(sp)
    8000104c:	f04a                	sd	s2,32(sp)
    8000104e:	ec4e                	sd	s3,24(sp)
    80001050:	e852                	sd	s4,16(sp)
    80001052:	e456                	sd	s5,8(sp)
    80001054:	e05a                	sd	s6,0(sp)
    80001056:	0080                	addi	s0,sp,64
    80001058:	84aa                	mv	s1,a0
    8000105a:	89ae                	mv	s3,a1
    8000105c:	8b32                	mv	s6,a2
  if(va >= MAXVA)
    8000105e:	57fd                	li	a5,-1
    80001060:	83e9                	srli	a5,a5,0x1a
    80001062:	4a79                	li	s4,30
    panic("walk");

  for(int level = 2; level > 0; level--) {
    80001064:	4ab1                	li	s5,12
  if(va >= MAXVA)
    80001066:	04b7e263          	bltu	a5,a1,800010aa <walk+0x66>
    pte_t *pte = &pagetable[PX(level, va)];
    8000106a:	0149d933          	srl	s2,s3,s4
    8000106e:	1ff97913          	andi	s2,s2,511
    80001072:	090e                	slli	s2,s2,0x3
    80001074:	9926                	add	s2,s2,s1
    if(*pte & PTE_V) {
    80001076:	00093483          	ld	s1,0(s2)
    8000107a:	0014f793          	andi	a5,s1,1
    8000107e:	cf95                	beqz	a5,800010ba <walk+0x76>
      pagetable = (pagetable_t)PTE2PA(*pte);
    80001080:	80a9                	srli	s1,s1,0xa
    80001082:	04b2                	slli	s1,s1,0xc
  for(int level = 2; level > 0; level--) {
    80001084:	3a5d                	addiw	s4,s4,-9
    80001086:	ff5a12e3          	bne	s4,s5,8000106a <walk+0x26>
        return 0;
      memset(pagetable, 0, PGSIZE);
      *pte = PA2PTE(pagetable) | PTE_V;
    }
  }
  return &pagetable[PX(0, va)];
    8000108a:	00c9d513          	srli	a0,s3,0xc
    8000108e:	1ff57513          	andi	a0,a0,511
    80001092:	050e                	slli	a0,a0,0x3
    80001094:	9526                	add	a0,a0,s1
}
    80001096:	70e2                	ld	ra,56(sp)
    80001098:	7442                	ld	s0,48(sp)
    8000109a:	74a2                	ld	s1,40(sp)
    8000109c:	7902                	ld	s2,32(sp)
    8000109e:	69e2                	ld	s3,24(sp)
    800010a0:	6a42                	ld	s4,16(sp)
    800010a2:	6aa2                	ld	s5,8(sp)
    800010a4:	6b02                	ld	s6,0(sp)
    800010a6:	6121                	addi	sp,sp,64
    800010a8:	8082                	ret
    panic("walk");
    800010aa:	00007517          	auipc	a0,0x7
    800010ae:	00650513          	addi	a0,a0,6 # 800080b0 <etext+0xb0>
    800010b2:	fffff097          	auipc	ra,0xfffff
    800010b6:	4a4080e7          	jalr	1188(ra) # 80000556 <panic>
      if(!alloc || (pagetable = (pde_t*)kalloc()) == 0)
    800010ba:	020b0663          	beqz	s6,800010e6 <walk+0xa2>
    800010be:	00000097          	auipc	ra,0x0
    800010c2:	a92080e7          	jalr	-1390(ra) # 80000b50 <kalloc>
    800010c6:	84aa                	mv	s1,a0
    800010c8:	d579                	beqz	a0,80001096 <walk+0x52>
      memset(pagetable, 0, PGSIZE);
    800010ca:	6605                	lui	a2,0x1
    800010cc:	4581                	li	a1,0
    800010ce:	00000097          	auipc	ra,0x0
    800010d2:	c7e080e7          	jalr	-898(ra) # 80000d4c <memset>
      *pte = PA2PTE(pagetable) | PTE_V;
    800010d6:	00c4d793          	srli	a5,s1,0xc
    800010da:	07aa                	slli	a5,a5,0xa
    800010dc:	0017e793          	ori	a5,a5,1
    800010e0:	00f93023          	sd	a5,0(s2)
    800010e4:	b745                	j	80001084 <walk+0x40>
        return 0;
    800010e6:	4501                	li	a0,0
    800010e8:	b77d                	j	80001096 <walk+0x52>

00000000800010ea <walkaddr>:
walkaddr(pagetable_t pagetable, uint64 va)
{
  pte_t *pte;
  uint64 pa;

  if(va >= MAXVA)
    800010ea:	57fd                	li	a5,-1
    800010ec:	83e9                	srli	a5,a5,0x1a
    800010ee:	00b7f463          	bgeu	a5,a1,800010f6 <walkaddr+0xc>
    return 0;
    800010f2:	4501                	li	a0,0
    return 0;
  if((*pte & PTE_U) == 0)
    return 0;
  pa = PTE2PA(*pte);
  return pa;
}
    800010f4:	8082                	ret
{
    800010f6:	1141                	addi	sp,sp,-16
    800010f8:	e406                	sd	ra,8(sp)
    800010fa:	e022                	sd	s0,0(sp)
    800010fc:	0800                	addi	s0,sp,16
  pte = walk(pagetable, va, 0);
    800010fe:	4601                	li	a2,0
    80001100:	00000097          	auipc	ra,0x0
    80001104:	f44080e7          	jalr	-188(ra) # 80001044 <walk>
  if(pte == 0)
    80001108:	c901                	beqz	a0,80001118 <walkaddr+0x2e>
  if((*pte & PTE_V) == 0)
    8000110a:	611c                	ld	a5,0(a0)
  if((*pte & PTE_U) == 0)
    8000110c:	0117f693          	andi	a3,a5,17
    80001110:	4745                	li	a4,17
    return 0;
    80001112:	4501                	li	a0,0
  if((*pte & PTE_U) == 0)
    80001114:	00e68663          	beq	a3,a4,80001120 <walkaddr+0x36>
}
    80001118:	60a2                	ld	ra,8(sp)
    8000111a:	6402                	ld	s0,0(sp)
    8000111c:	0141                	addi	sp,sp,16
    8000111e:	8082                	ret
  pa = PTE2PA(*pte);
    80001120:	83a9                	srli	a5,a5,0xa
    80001122:	00c79513          	slli	a0,a5,0xc
  return pa;
    80001126:	bfcd                	j	80001118 <walkaddr+0x2e>

0000000080001128 <mappages>:
// physical addresses starting at pa. va and size might not
// be page-aligned. Returns 0 on success, -1 if walk() couldn't
// allocate a needed page-table page.
int
mappages(pagetable_t pagetable, uint64 va, uint64 size, uint64 pa, int perm)
{
    80001128:	715d                	addi	sp,sp,-80
    8000112a:	e486                	sd	ra,72(sp)
    8000112c:	e0a2                	sd	s0,64(sp)
    8000112e:	fc26                	sd	s1,56(sp)
    80001130:	f84a                	sd	s2,48(sp)
    80001132:	f44e                	sd	s3,40(sp)
    80001134:	f052                	sd	s4,32(sp)
    80001136:	ec56                	sd	s5,24(sp)
    80001138:	e85a                	sd	s6,16(sp)
    8000113a:	e45e                	sd	s7,8(sp)
    8000113c:	0880                	addi	s0,sp,80
  uint64 a, last;
  pte_t *pte;

  if(size == 0)
    8000113e:	ca21                	beqz	a2,8000118e <mappages+0x66>
    80001140:	8a2a                	mv	s4,a0
    80001142:	8aba                	mv	s5,a4
    panic("mappages: size");
  
  a = PGROUNDDOWN(va);
    80001144:	777d                	lui	a4,0xfffff
    80001146:	00e5f7b3          	and	a5,a1,a4
  last = PGROUNDDOWN(va + size - 1);
    8000114a:	fff58913          	addi	s2,a1,-1
    8000114e:	9932                	add	s2,s2,a2
    80001150:	00e97933          	and	s2,s2,a4
  a = PGROUNDDOWN(va);
    80001154:	84be                	mv	s1,a5
  for(;;){
    if((pte = walk(pagetable, a, 1)) == 0)
    80001156:	4b05                	li	s6,1
    80001158:	40f689b3          	sub	s3,a3,a5
    if(*pte & PTE_V)
      panic("mappages: remap");
    *pte = PA2PTE(pa) | perm | PTE_V;
    if(a == last)
      break;
    a += PGSIZE;
    8000115c:	6b85                	lui	s7,0x1
    if((pte = walk(pagetable, a, 1)) == 0)
    8000115e:	865a                	mv	a2,s6
    80001160:	85a6                	mv	a1,s1
    80001162:	8552                	mv	a0,s4
    80001164:	00000097          	auipc	ra,0x0
    80001168:	ee0080e7          	jalr	-288(ra) # 80001044 <walk>
    8000116c:	c129                	beqz	a0,800011ae <mappages+0x86>
    if(*pte & PTE_V)
    8000116e:	611c                	ld	a5,0(a0)
    80001170:	8b85                	andi	a5,a5,1
    80001172:	e795                	bnez	a5,8000119e <mappages+0x76>
    *pte = PA2PTE(pa) | perm | PTE_V;
    80001174:	013487b3          	add	a5,s1,s3
    80001178:	83b1                	srli	a5,a5,0xc
    8000117a:	07aa                	slli	a5,a5,0xa
    8000117c:	0157e7b3          	or	a5,a5,s5
    80001180:	0017e793          	ori	a5,a5,1
    80001184:	e11c                	sd	a5,0(a0)
    if(a == last)
    80001186:	05248063          	beq	s1,s2,800011c6 <mappages+0x9e>
    a += PGSIZE;
    8000118a:	94de                	add	s1,s1,s7
    if((pte = walk(pagetable, a, 1)) == 0)
    8000118c:	bfc9                	j	8000115e <mappages+0x36>
    panic("mappages: size");
    8000118e:	00007517          	auipc	a0,0x7
    80001192:	f2a50513          	addi	a0,a0,-214 # 800080b8 <etext+0xb8>
    80001196:	fffff097          	auipc	ra,0xfffff
    8000119a:	3c0080e7          	jalr	960(ra) # 80000556 <panic>
      panic("mappages: remap");
    8000119e:	00007517          	auipc	a0,0x7
    800011a2:	f2a50513          	addi	a0,a0,-214 # 800080c8 <etext+0xc8>
    800011a6:	fffff097          	auipc	ra,0xfffff
    800011aa:	3b0080e7          	jalr	944(ra) # 80000556 <panic>
      return -1;
    800011ae:	557d                	li	a0,-1
    pa += PGSIZE;
  }
  return 0;
}
    800011b0:	60a6                	ld	ra,72(sp)
    800011b2:	6406                	ld	s0,64(sp)
    800011b4:	74e2                	ld	s1,56(sp)
    800011b6:	7942                	ld	s2,48(sp)
    800011b8:	79a2                	ld	s3,40(sp)
    800011ba:	7a02                	ld	s4,32(sp)
    800011bc:	6ae2                	ld	s5,24(sp)
    800011be:	6b42                	ld	s6,16(sp)
    800011c0:	6ba2                	ld	s7,8(sp)
    800011c2:	6161                	addi	sp,sp,80
    800011c4:	8082                	ret
  return 0;
    800011c6:	4501                	li	a0,0
    800011c8:	b7e5                	j	800011b0 <mappages+0x88>

00000000800011ca <kvmmap>:
{
    800011ca:	1141                	addi	sp,sp,-16
    800011cc:	e406                	sd	ra,8(sp)
    800011ce:	e022                	sd	s0,0(sp)
    800011d0:	0800                	addi	s0,sp,16
    800011d2:	87b6                	mv	a5,a3
  if(mappages(kpgtbl, va, sz, pa, perm) != 0)
    800011d4:	86b2                	mv	a3,a2
    800011d6:	863e                	mv	a2,a5
    800011d8:	00000097          	auipc	ra,0x0
    800011dc:	f50080e7          	jalr	-176(ra) # 80001128 <mappages>
    800011e0:	e509                	bnez	a0,800011ea <kvmmap+0x20>
}
    800011e2:	60a2                	ld	ra,8(sp)
    800011e4:	6402                	ld	s0,0(sp)
    800011e6:	0141                	addi	sp,sp,16
    800011e8:	8082                	ret
    panic("kvmmap");
    800011ea:	00007517          	auipc	a0,0x7
    800011ee:	eee50513          	addi	a0,a0,-274 # 800080d8 <etext+0xd8>
    800011f2:	fffff097          	auipc	ra,0xfffff
    800011f6:	364080e7          	jalr	868(ra) # 80000556 <panic>

00000000800011fa <kvmmake>:
{
    800011fa:	1101                	addi	sp,sp,-32
    800011fc:	ec06                	sd	ra,24(sp)
    800011fe:	e822                	sd	s0,16(sp)
    80001200:	e426                	sd	s1,8(sp)
    80001202:	1000                	addi	s0,sp,32
  kpgtbl = (pagetable_t) kalloc();
    80001204:	00000097          	auipc	ra,0x0
    80001208:	94c080e7          	jalr	-1716(ra) # 80000b50 <kalloc>
    8000120c:	84aa                	mv	s1,a0
  memset(kpgtbl, 0, PGSIZE);
    8000120e:	6605                	lui	a2,0x1
    80001210:	4581                	li	a1,0
    80001212:	00000097          	auipc	ra,0x0
    80001216:	b3a080e7          	jalr	-1222(ra) # 80000d4c <memset>
  kvmmap(kpgtbl, UART0, UART0, PGSIZE, PTE_R | PTE_W);
    8000121a:	4719                	li	a4,6
    8000121c:	6685                	lui	a3,0x1
    8000121e:	10000637          	lui	a2,0x10000
    80001222:	85b2                	mv	a1,a2
    80001224:	8526                	mv	a0,s1
    80001226:	00000097          	auipc	ra,0x0
    8000122a:	fa4080e7          	jalr	-92(ra) # 800011ca <kvmmap>
  kvmmap(kpgtbl, VIRTIO0, VIRTIO0, PGSIZE, PTE_R | PTE_W);
    8000122e:	4719                	li	a4,6
    80001230:	6685                	lui	a3,0x1
    80001232:	10001637          	lui	a2,0x10001
    80001236:	85b2                	mv	a1,a2
    80001238:	8526                	mv	a0,s1
    8000123a:	00000097          	auipc	ra,0x0
    8000123e:	f90080e7          	jalr	-112(ra) # 800011ca <kvmmap>
  kvmmap(kpgtbl, PLIC, PLIC, 0x400000, PTE_R | PTE_W);
    80001242:	4719                	li	a4,6
    80001244:	004006b7          	lui	a3,0x400
    80001248:	0c000637          	lui	a2,0xc000
    8000124c:	85b2                	mv	a1,a2
    8000124e:	8526                	mv	a0,s1
    80001250:	00000097          	auipc	ra,0x0
    80001254:	f7a080e7          	jalr	-134(ra) # 800011ca <kvmmap>
  kvmmap(kpgtbl, KERNBASE, KERNBASE, (uint64)etext-KERNBASE, PTE_R | PTE_X);
    80001258:	4729                	li	a4,10
    8000125a:	80007697          	auipc	a3,0x80007
    8000125e:	da668693          	addi	a3,a3,-602 # 8000 <_entry-0x7fff8000>
    80001262:	4605                	li	a2,1
    80001264:	067e                	slli	a2,a2,0x1f
    80001266:	85b2                	mv	a1,a2
    80001268:	8526                	mv	a0,s1
    8000126a:	00000097          	auipc	ra,0x0
    8000126e:	f60080e7          	jalr	-160(ra) # 800011ca <kvmmap>
  kvmmap(kpgtbl, (uint64)etext, (uint64)etext, PHYSTOP-(uint64)etext, PTE_R | PTE_W);
    80001272:	4719                	li	a4,6
    80001274:	00007697          	auipc	a3,0x7
    80001278:	d8c68693          	addi	a3,a3,-628 # 80008000 <etext>
    8000127c:	47c5                	li	a5,17
    8000127e:	07ee                	slli	a5,a5,0x1b
    80001280:	40d786b3          	sub	a3,a5,a3
    80001284:	00007617          	auipc	a2,0x7
    80001288:	d7c60613          	addi	a2,a2,-644 # 80008000 <etext>
    8000128c:	85b2                	mv	a1,a2
    8000128e:	8526                	mv	a0,s1
    80001290:	00000097          	auipc	ra,0x0
    80001294:	f3a080e7          	jalr	-198(ra) # 800011ca <kvmmap>
  kvmmap(kpgtbl, TRAMPOLINE, (uint64)trampoline, PGSIZE, PTE_R | PTE_X);
    80001298:	4729                	li	a4,10
    8000129a:	6685                	lui	a3,0x1
    8000129c:	00006617          	auipc	a2,0x6
    800012a0:	d6460613          	addi	a2,a2,-668 # 80007000 <_trampoline>
    800012a4:	040005b7          	lui	a1,0x4000
    800012a8:	15fd                	addi	a1,a1,-1 # 3ffffff <_entry-0x7c000001>
    800012aa:	05b2                	slli	a1,a1,0xc
    800012ac:	8526                	mv	a0,s1
    800012ae:	00000097          	auipc	ra,0x0
    800012b2:	f1c080e7          	jalr	-228(ra) # 800011ca <kvmmap>
  proc_mapstacks(kpgtbl);
    800012b6:	8526                	mv	a0,s1
    800012b8:	00000097          	auipc	ra,0x0
    800012bc:	62c080e7          	jalr	1580(ra) # 800018e4 <proc_mapstacks>
}
    800012c0:	8526                	mv	a0,s1
    800012c2:	60e2                	ld	ra,24(sp)
    800012c4:	6442                	ld	s0,16(sp)
    800012c6:	64a2                	ld	s1,8(sp)
    800012c8:	6105                	addi	sp,sp,32
    800012ca:	8082                	ret

00000000800012cc <kvminit>:
{
    800012cc:	1141                	addi	sp,sp,-16
    800012ce:	e406                	sd	ra,8(sp)
    800012d0:	e022                	sd	s0,0(sp)
    800012d2:	0800                	addi	s0,sp,16
  kernel_pagetable = kvmmake();
    800012d4:	00000097          	auipc	ra,0x0
    800012d8:	f26080e7          	jalr	-218(ra) # 800011fa <kvmmake>
    800012dc:	0000b797          	auipc	a5,0xb
    800012e0:	d4a7b223          	sd	a0,-700(a5) # 8000c020 <kernel_pagetable>
}
    800012e4:	60a2                	ld	ra,8(sp)
    800012e6:	6402                	ld	s0,0(sp)
    800012e8:	0141                	addi	sp,sp,16
    800012ea:	8082                	ret

00000000800012ec <uvmunmap>:
// Remove npages of mappings starting from va. va must be
// page-aligned. The mappings must exist.
// Optionally free the physical memory.
void
uvmunmap(pagetable_t pagetable, uint64 va, uint64 npages, int do_free)
{
    800012ec:	715d                	addi	sp,sp,-80
    800012ee:	e486                	sd	ra,72(sp)
    800012f0:	e0a2                	sd	s0,64(sp)
    800012f2:	0880                	addi	s0,sp,80
  uint64 a;
  pte_t *pte;

  if((va % PGSIZE) != 0)
    800012f4:	03459793          	slli	a5,a1,0x34
    800012f8:	e39d                	bnez	a5,8000131e <uvmunmap+0x32>
    800012fa:	f84a                	sd	s2,48(sp)
    800012fc:	f44e                	sd	s3,40(sp)
    800012fe:	f052                	sd	s4,32(sp)
    80001300:	ec56                	sd	s5,24(sp)
    80001302:	e85a                	sd	s6,16(sp)
    80001304:	e45e                	sd	s7,8(sp)
    80001306:	8a2a                	mv	s4,a0
    80001308:	892e                	mv	s2,a1
    8000130a:	8ab6                	mv	s5,a3
    panic("uvmunmap: not aligned");

  for(a = va; a < va + npages*PGSIZE; a += PGSIZE){
    8000130c:	0632                	slli	a2,a2,0xc
    8000130e:	00b609b3          	add	s3,a2,a1
    if((pte = walk(pagetable, a, 0)) == 0)
      panic("uvmunmap: walk");
    if((*pte & PTE_V) == 0)
      panic("uvmunmap: not mapped");
    if(PTE_FLAGS(*pte) == PTE_V)
    80001312:	4b85                	li	s7,1
  for(a = va; a < va + npages*PGSIZE; a += PGSIZE){
    80001314:	6b05                	lui	s6,0x1
    80001316:	0935fb63          	bgeu	a1,s3,800013ac <uvmunmap+0xc0>
    8000131a:	fc26                	sd	s1,56(sp)
    8000131c:	a8a9                	j	80001376 <uvmunmap+0x8a>
    8000131e:	fc26                	sd	s1,56(sp)
    80001320:	f84a                	sd	s2,48(sp)
    80001322:	f44e                	sd	s3,40(sp)
    80001324:	f052                	sd	s4,32(sp)
    80001326:	ec56                	sd	s5,24(sp)
    80001328:	e85a                	sd	s6,16(sp)
    8000132a:	e45e                	sd	s7,8(sp)
    panic("uvmunmap: not aligned");
    8000132c:	00007517          	auipc	a0,0x7
    80001330:	db450513          	addi	a0,a0,-588 # 800080e0 <etext+0xe0>
    80001334:	fffff097          	auipc	ra,0xfffff
    80001338:	222080e7          	jalr	546(ra) # 80000556 <panic>
      panic("uvmunmap: walk");
    8000133c:	00007517          	auipc	a0,0x7
    80001340:	dbc50513          	addi	a0,a0,-580 # 800080f8 <etext+0xf8>
    80001344:	fffff097          	auipc	ra,0xfffff
    80001348:	212080e7          	jalr	530(ra) # 80000556 <panic>
      panic("uvmunmap: not mapped");
    8000134c:	00007517          	auipc	a0,0x7
    80001350:	dbc50513          	addi	a0,a0,-580 # 80008108 <etext+0x108>
    80001354:	fffff097          	auipc	ra,0xfffff
    80001358:	202080e7          	jalr	514(ra) # 80000556 <panic>
      panic("uvmunmap: not a leaf");
    8000135c:	00007517          	auipc	a0,0x7
    80001360:	dc450513          	addi	a0,a0,-572 # 80008120 <etext+0x120>
    80001364:	fffff097          	auipc	ra,0xfffff
    80001368:	1f2080e7          	jalr	498(ra) # 80000556 <panic>
    if(do_free){
      uint64 pa = PTE2PA(*pte);
      kfree((void*)pa);
    }
    *pte = 0;
    8000136c:	0004b023          	sd	zero,0(s1)
  for(a = va; a < va + npages*PGSIZE; a += PGSIZE){
    80001370:	995a                	add	s2,s2,s6
    80001372:	03397c63          	bgeu	s2,s3,800013aa <uvmunmap+0xbe>
    if((pte = walk(pagetable, a, 0)) == 0)
    80001376:	4601                	li	a2,0
    80001378:	85ca                	mv	a1,s2
    8000137a:	8552                	mv	a0,s4
    8000137c:	00000097          	auipc	ra,0x0
    80001380:	cc8080e7          	jalr	-824(ra) # 80001044 <walk>
    80001384:	84aa                	mv	s1,a0
    80001386:	d95d                	beqz	a0,8000133c <uvmunmap+0x50>
    if((*pte & PTE_V) == 0)
    80001388:	6108                	ld	a0,0(a0)
    8000138a:	00157793          	andi	a5,a0,1
    8000138e:	dfdd                	beqz	a5,8000134c <uvmunmap+0x60>
    if(PTE_FLAGS(*pte) == PTE_V)
    80001390:	3ff57793          	andi	a5,a0,1023
    80001394:	fd7784e3          	beq	a5,s7,8000135c <uvmunmap+0x70>
    if(do_free){
    80001398:	fc0a8ae3          	beqz	s5,8000136c <uvmunmap+0x80>
      uint64 pa = PTE2PA(*pte);
    8000139c:	8129                	srli	a0,a0,0xa
      kfree((void*)pa);
    8000139e:	0532                	slli	a0,a0,0xc
    800013a0:	fffff097          	auipc	ra,0xfffff
    800013a4:	6ac080e7          	jalr	1708(ra) # 80000a4c <kfree>
    800013a8:	b7d1                	j	8000136c <uvmunmap+0x80>
    800013aa:	74e2                	ld	s1,56(sp)
    800013ac:	7942                	ld	s2,48(sp)
    800013ae:	79a2                	ld	s3,40(sp)
    800013b0:	7a02                	ld	s4,32(sp)
    800013b2:	6ae2                	ld	s5,24(sp)
    800013b4:	6b42                	ld	s6,16(sp)
    800013b6:	6ba2                	ld	s7,8(sp)
  }
}
    800013b8:	60a6                	ld	ra,72(sp)
    800013ba:	6406                	ld	s0,64(sp)
    800013bc:	6161                	addi	sp,sp,80
    800013be:	8082                	ret

00000000800013c0 <uvmcreate>:

// create an empty user page table.
// returns 0 if out of memory.
pagetable_t
uvmcreate()
{
    800013c0:	1101                	addi	sp,sp,-32
    800013c2:	ec06                	sd	ra,24(sp)
    800013c4:	e822                	sd	s0,16(sp)
    800013c6:	e426                	sd	s1,8(sp)
    800013c8:	1000                	addi	s0,sp,32
  pagetable_t pagetable;
  pagetable = (pagetable_t) kalloc();
    800013ca:	fffff097          	auipc	ra,0xfffff
    800013ce:	786080e7          	jalr	1926(ra) # 80000b50 <kalloc>
    800013d2:	84aa                	mv	s1,a0
  if(pagetable == 0)
    800013d4:	c519                	beqz	a0,800013e2 <uvmcreate+0x22>
    return 0;
  memset(pagetable, 0, PGSIZE);
    800013d6:	6605                	lui	a2,0x1
    800013d8:	4581                	li	a1,0
    800013da:	00000097          	auipc	ra,0x0
    800013de:	972080e7          	jalr	-1678(ra) # 80000d4c <memset>
  return pagetable;
}
    800013e2:	8526                	mv	a0,s1
    800013e4:	60e2                	ld	ra,24(sp)
    800013e6:	6442                	ld	s0,16(sp)
    800013e8:	64a2                	ld	s1,8(sp)
    800013ea:	6105                	addi	sp,sp,32
    800013ec:	8082                	ret

00000000800013ee <uvminit>:
// Load the user initcode into address 0 of pagetable,
// for the very first process.
// sz must be less than a page.
void
uvminit(pagetable_t pagetable, uchar *src, uint sz)
{
    800013ee:	7179                	addi	sp,sp,-48
    800013f0:	f406                	sd	ra,40(sp)
    800013f2:	f022                	sd	s0,32(sp)
    800013f4:	ec26                	sd	s1,24(sp)
    800013f6:	e84a                	sd	s2,16(sp)
    800013f8:	e44e                	sd	s3,8(sp)
    800013fa:	e052                	sd	s4,0(sp)
    800013fc:	1800                	addi	s0,sp,48
  char *mem;

  if(sz >= PGSIZE)
    800013fe:	6785                	lui	a5,0x1
    80001400:	04f67863          	bgeu	a2,a5,80001450 <uvminit+0x62>
    80001404:	89aa                	mv	s3,a0
    80001406:	8a2e                	mv	s4,a1
    80001408:	84b2                	mv	s1,a2
    panic("inituvm: more than a page");
  mem = kalloc();
    8000140a:	fffff097          	auipc	ra,0xfffff
    8000140e:	746080e7          	jalr	1862(ra) # 80000b50 <kalloc>
    80001412:	892a                	mv	s2,a0
  memset(mem, 0, PGSIZE);
    80001414:	6605                	lui	a2,0x1
    80001416:	4581                	li	a1,0
    80001418:	00000097          	auipc	ra,0x0
    8000141c:	934080e7          	jalr	-1740(ra) # 80000d4c <memset>
  mappages(pagetable, 0, PGSIZE, (uint64)mem, PTE_W|PTE_R|PTE_X|PTE_U);
    80001420:	4779                	li	a4,30
    80001422:	86ca                	mv	a3,s2
    80001424:	6605                	lui	a2,0x1
    80001426:	4581                	li	a1,0
    80001428:	854e                	mv	a0,s3
    8000142a:	00000097          	auipc	ra,0x0
    8000142e:	cfe080e7          	jalr	-770(ra) # 80001128 <mappages>
  memmove(mem, src, sz);
    80001432:	8626                	mv	a2,s1
    80001434:	85d2                	mv	a1,s4
    80001436:	854a                	mv	a0,s2
    80001438:	00000097          	auipc	ra,0x0
    8000143c:	974080e7          	jalr	-1676(ra) # 80000dac <memmove>
}
    80001440:	70a2                	ld	ra,40(sp)
    80001442:	7402                	ld	s0,32(sp)
    80001444:	64e2                	ld	s1,24(sp)
    80001446:	6942                	ld	s2,16(sp)
    80001448:	69a2                	ld	s3,8(sp)
    8000144a:	6a02                	ld	s4,0(sp)
    8000144c:	6145                	addi	sp,sp,48
    8000144e:	8082                	ret
    panic("inituvm: more than a page");
    80001450:	00007517          	auipc	a0,0x7
    80001454:	ce850513          	addi	a0,a0,-792 # 80008138 <etext+0x138>
    80001458:	fffff097          	auipc	ra,0xfffff
    8000145c:	0fe080e7          	jalr	254(ra) # 80000556 <panic>

0000000080001460 <uvmdealloc>:
// newsz.  oldsz and newsz need not be page-aligned, nor does newsz
// need to be less than oldsz.  oldsz can be larger than the actual
// process size.  Returns the new process size.
uint64
uvmdealloc(pagetable_t pagetable, uint64 oldsz, uint64 newsz)
{
    80001460:	1101                	addi	sp,sp,-32
    80001462:	ec06                	sd	ra,24(sp)
    80001464:	e822                	sd	s0,16(sp)
    80001466:	e426                	sd	s1,8(sp)
    80001468:	1000                	addi	s0,sp,32
  if(newsz >= oldsz)
    return oldsz;
    8000146a:	84ae                	mv	s1,a1
  if(newsz >= oldsz)
    8000146c:	00b67d63          	bgeu	a2,a1,80001486 <uvmdealloc+0x26>
    80001470:	84b2                	mv	s1,a2

  if(PGROUNDUP(newsz) < PGROUNDUP(oldsz)){
    80001472:	6785                	lui	a5,0x1
    80001474:	17fd                	addi	a5,a5,-1 # fff <_entry-0x7ffff001>
    80001476:	00f60733          	add	a4,a2,a5
    8000147a:	76fd                	lui	a3,0xfffff
    8000147c:	8f75                	and	a4,a4,a3
    8000147e:	97ae                	add	a5,a5,a1
    80001480:	8ff5                	and	a5,a5,a3
    80001482:	00f76863          	bltu	a4,a5,80001492 <uvmdealloc+0x32>
    int npages = (PGROUNDUP(oldsz) - PGROUNDUP(newsz)) / PGSIZE;
    uvmunmap(pagetable, PGROUNDUP(newsz), npages, 1);
  }

  return newsz;
}
    80001486:	8526                	mv	a0,s1
    80001488:	60e2                	ld	ra,24(sp)
    8000148a:	6442                	ld	s0,16(sp)
    8000148c:	64a2                	ld	s1,8(sp)
    8000148e:	6105                	addi	sp,sp,32
    80001490:	8082                	ret
    int npages = (PGROUNDUP(oldsz) - PGROUNDUP(newsz)) / PGSIZE;
    80001492:	8f99                	sub	a5,a5,a4
    80001494:	83b1                	srli	a5,a5,0xc
    uvmunmap(pagetable, PGROUNDUP(newsz), npages, 1);
    80001496:	4685                	li	a3,1
    80001498:	0007861b          	sext.w	a2,a5
    8000149c:	85ba                	mv	a1,a4
    8000149e:	00000097          	auipc	ra,0x0
    800014a2:	e4e080e7          	jalr	-434(ra) # 800012ec <uvmunmap>
    800014a6:	b7c5                	j	80001486 <uvmdealloc+0x26>

00000000800014a8 <uvmalloc>:
  if(newsz < oldsz)
    800014a8:	0ab66c63          	bltu	a2,a1,80001560 <uvmalloc+0xb8>
{
    800014ac:	715d                	addi	sp,sp,-80
    800014ae:	e486                	sd	ra,72(sp)
    800014b0:	e0a2                	sd	s0,64(sp)
    800014b2:	f84a                	sd	s2,48(sp)
    800014b4:	f052                	sd	s4,32(sp)
    800014b6:	ec56                	sd	s5,24(sp)
    800014b8:	e45e                	sd	s7,8(sp)
    800014ba:	0880                	addi	s0,sp,80
    800014bc:	8aaa                	mv	s5,a0
    800014be:	8a32                	mv	s4,a2
  oldsz = PGROUNDUP(oldsz);
    800014c0:	6785                	lui	a5,0x1
    800014c2:	17fd                	addi	a5,a5,-1 # fff <_entry-0x7ffff001>
    800014c4:	95be                	add	a1,a1,a5
    800014c6:	77fd                	lui	a5,0xfffff
    800014c8:	00f5f933          	and	s2,a1,a5
    800014cc:	8bca                	mv	s7,s2
  for(a = oldsz; a < newsz; a += PGSIZE){
    800014ce:	08c97b63          	bgeu	s2,a2,80001564 <uvmalloc+0xbc>
    800014d2:	fc26                	sd	s1,56(sp)
    800014d4:	f44e                	sd	s3,40(sp)
    800014d6:	e85a                	sd	s6,16(sp)
    memset(mem, 0, PGSIZE);
    800014d8:	6985                	lui	s3,0x1
    if(mappages(pagetable, a, PGSIZE, (uint64)mem, PTE_W|PTE_X|PTE_R|PTE_U) != 0){
    800014da:	4b79                	li	s6,30
    mem = kalloc();
    800014dc:	fffff097          	auipc	ra,0xfffff
    800014e0:	674080e7          	jalr	1652(ra) # 80000b50 <kalloc>
    800014e4:	84aa                	mv	s1,a0
    if(mem == 0){
    800014e6:	c90d                	beqz	a0,80001518 <uvmalloc+0x70>
    memset(mem, 0, PGSIZE);
    800014e8:	864e                	mv	a2,s3
    800014ea:	4581                	li	a1,0
    800014ec:	00000097          	auipc	ra,0x0
    800014f0:	860080e7          	jalr	-1952(ra) # 80000d4c <memset>
    if(mappages(pagetable, a, PGSIZE, (uint64)mem, PTE_W|PTE_X|PTE_R|PTE_U) != 0){
    800014f4:	875a                	mv	a4,s6
    800014f6:	86a6                	mv	a3,s1
    800014f8:	864e                	mv	a2,s3
    800014fa:	85ca                	mv	a1,s2
    800014fc:	8556                	mv	a0,s5
    800014fe:	00000097          	auipc	ra,0x0
    80001502:	c2a080e7          	jalr	-982(ra) # 80001128 <mappages>
    80001506:	ed05                	bnez	a0,8000153e <uvmalloc+0x96>
  for(a = oldsz; a < newsz; a += PGSIZE){
    80001508:	994e                	add	s2,s2,s3
    8000150a:	fd4969e3          	bltu	s2,s4,800014dc <uvmalloc+0x34>
  return newsz;
    8000150e:	8552                	mv	a0,s4
    80001510:	74e2                	ld	s1,56(sp)
    80001512:	79a2                	ld	s3,40(sp)
    80001514:	6b42                	ld	s6,16(sp)
    80001516:	a821                	j	8000152e <uvmalloc+0x86>
      uvmdealloc(pagetable, a, oldsz);
    80001518:	865e                	mv	a2,s7
    8000151a:	85ca                	mv	a1,s2
    8000151c:	8556                	mv	a0,s5
    8000151e:	00000097          	auipc	ra,0x0
    80001522:	f42080e7          	jalr	-190(ra) # 80001460 <uvmdealloc>
      return 0;
    80001526:	4501                	li	a0,0
    80001528:	74e2                	ld	s1,56(sp)
    8000152a:	79a2                	ld	s3,40(sp)
    8000152c:	6b42                	ld	s6,16(sp)
}
    8000152e:	60a6                	ld	ra,72(sp)
    80001530:	6406                	ld	s0,64(sp)
    80001532:	7942                	ld	s2,48(sp)
    80001534:	7a02                	ld	s4,32(sp)
    80001536:	6ae2                	ld	s5,24(sp)
    80001538:	6ba2                	ld	s7,8(sp)
    8000153a:	6161                	addi	sp,sp,80
    8000153c:	8082                	ret
      kfree(mem);
    8000153e:	8526                	mv	a0,s1
    80001540:	fffff097          	auipc	ra,0xfffff
    80001544:	50c080e7          	jalr	1292(ra) # 80000a4c <kfree>
      uvmdealloc(pagetable, a, oldsz);
    80001548:	865e                	mv	a2,s7
    8000154a:	85ca                	mv	a1,s2
    8000154c:	8556                	mv	a0,s5
    8000154e:	00000097          	auipc	ra,0x0
    80001552:	f12080e7          	jalr	-238(ra) # 80001460 <uvmdealloc>
      return 0;
    80001556:	4501                	li	a0,0
    80001558:	74e2                	ld	s1,56(sp)
    8000155a:	79a2                	ld	s3,40(sp)
    8000155c:	6b42                	ld	s6,16(sp)
    8000155e:	bfc1                	j	8000152e <uvmalloc+0x86>
    return oldsz;
    80001560:	852e                	mv	a0,a1
}
    80001562:	8082                	ret
  return newsz;
    80001564:	8532                	mv	a0,a2
    80001566:	b7e1                	j	8000152e <uvmalloc+0x86>

0000000080001568 <freewalk>:

// Recursively free page-table pages.
// All leaf mappings must already have been removed.
void
freewalk(pagetable_t pagetable)
{
    80001568:	7179                	addi	sp,sp,-48
    8000156a:	f406                	sd	ra,40(sp)
    8000156c:	f022                	sd	s0,32(sp)
    8000156e:	ec26                	sd	s1,24(sp)
    80001570:	e84a                	sd	s2,16(sp)
    80001572:	e44e                	sd	s3,8(sp)
    80001574:	1800                	addi	s0,sp,48
    80001576:	89aa                	mv	s3,a0
  // there are 2^9 = 512 PTEs in a page table.
  for(int i = 0; i < 512; i++){
    80001578:	84aa                	mv	s1,a0
    8000157a:	6905                	lui	s2,0x1
    8000157c:	992a                	add	s2,s2,a0
    8000157e:	a821                	j	80001596 <freewalk+0x2e>
      // this PTE points to a lower-level page table.
      uint64 child = PTE2PA(pte);
      freewalk((pagetable_t)child);
      pagetable[i] = 0;
    } else if(pte & PTE_V){
      panic("freewalk: leaf");
    80001580:	00007517          	auipc	a0,0x7
    80001584:	bd850513          	addi	a0,a0,-1064 # 80008158 <etext+0x158>
    80001588:	fffff097          	auipc	ra,0xfffff
    8000158c:	fce080e7          	jalr	-50(ra) # 80000556 <panic>
  for(int i = 0; i < 512; i++){
    80001590:	04a1                	addi	s1,s1,8
    80001592:	03248363          	beq	s1,s2,800015b8 <freewalk+0x50>
    pte_t pte = pagetable[i];
    80001596:	609c                	ld	a5,0(s1)
    if((pte & PTE_V) && (pte & (PTE_R|PTE_W|PTE_X)) == 0){
    80001598:	0017f713          	andi	a4,a5,1
    8000159c:	db75                	beqz	a4,80001590 <freewalk+0x28>
    8000159e:	00e7f713          	andi	a4,a5,14
    800015a2:	ff79                	bnez	a4,80001580 <freewalk+0x18>
      uint64 child = PTE2PA(pte);
    800015a4:	83a9                	srli	a5,a5,0xa
      freewalk((pagetable_t)child);
    800015a6:	00c79513          	slli	a0,a5,0xc
    800015aa:	00000097          	auipc	ra,0x0
    800015ae:	fbe080e7          	jalr	-66(ra) # 80001568 <freewalk>
      pagetable[i] = 0;
    800015b2:	0004b023          	sd	zero,0(s1)
    if((pte & PTE_V) && (pte & (PTE_R|PTE_W|PTE_X)) == 0){
    800015b6:	bfe9                	j	80001590 <freewalk+0x28>
    }
  }
  kfree((void*)pagetable);
    800015b8:	854e                	mv	a0,s3
    800015ba:	fffff097          	auipc	ra,0xfffff
    800015be:	492080e7          	jalr	1170(ra) # 80000a4c <kfree>
}
    800015c2:	70a2                	ld	ra,40(sp)
    800015c4:	7402                	ld	s0,32(sp)
    800015c6:	64e2                	ld	s1,24(sp)
    800015c8:	6942                	ld	s2,16(sp)
    800015ca:	69a2                	ld	s3,8(sp)
    800015cc:	6145                	addi	sp,sp,48
    800015ce:	8082                	ret

00000000800015d0 <uvmfree>:

// Free user memory pages,
// then free page-table pages.
void
uvmfree(pagetable_t pagetable, uint64 sz)
{
    800015d0:	1101                	addi	sp,sp,-32
    800015d2:	ec06                	sd	ra,24(sp)
    800015d4:	e822                	sd	s0,16(sp)
    800015d6:	e426                	sd	s1,8(sp)
    800015d8:	1000                	addi	s0,sp,32
    800015da:	84aa                	mv	s1,a0
  if(sz > 0)
    800015dc:	e999                	bnez	a1,800015f2 <uvmfree+0x22>
    uvmunmap(pagetable, 0, PGROUNDUP(sz)/PGSIZE, 1);
  freewalk(pagetable);
    800015de:	8526                	mv	a0,s1
    800015e0:	00000097          	auipc	ra,0x0
    800015e4:	f88080e7          	jalr	-120(ra) # 80001568 <freewalk>
}
    800015e8:	60e2                	ld	ra,24(sp)
    800015ea:	6442                	ld	s0,16(sp)
    800015ec:	64a2                	ld	s1,8(sp)
    800015ee:	6105                	addi	sp,sp,32
    800015f0:	8082                	ret
    uvmunmap(pagetable, 0, PGROUNDUP(sz)/PGSIZE, 1);
    800015f2:	6785                	lui	a5,0x1
    800015f4:	17fd                	addi	a5,a5,-1 # fff <_entry-0x7ffff001>
    800015f6:	95be                	add	a1,a1,a5
    800015f8:	4685                	li	a3,1
    800015fa:	00c5d613          	srli	a2,a1,0xc
    800015fe:	4581                	li	a1,0
    80001600:	00000097          	auipc	ra,0x0
    80001604:	cec080e7          	jalr	-788(ra) # 800012ec <uvmunmap>
    80001608:	bfd9                	j	800015de <uvmfree+0xe>

000000008000160a <uvmcopy>:
  pte_t *pte;
  uint64 pa, i;
  uint flags;
  char *mem;

  for(i = 0; i < sz; i += PGSIZE){
    8000160a:	c669                	beqz	a2,800016d4 <uvmcopy+0xca>
{
    8000160c:	715d                	addi	sp,sp,-80
    8000160e:	e486                	sd	ra,72(sp)
    80001610:	e0a2                	sd	s0,64(sp)
    80001612:	fc26                	sd	s1,56(sp)
    80001614:	f84a                	sd	s2,48(sp)
    80001616:	f44e                	sd	s3,40(sp)
    80001618:	f052                	sd	s4,32(sp)
    8000161a:	ec56                	sd	s5,24(sp)
    8000161c:	e85a                	sd	s6,16(sp)
    8000161e:	e45e                	sd	s7,8(sp)
    80001620:	0880                	addi	s0,sp,80
    80001622:	8b2a                	mv	s6,a0
    80001624:	8aae                	mv	s5,a1
    80001626:	8a32                	mv	s4,a2
  for(i = 0; i < sz; i += PGSIZE){
    80001628:	4901                	li	s2,0
      panic("uvmcopy: page not present");
    pa = PTE2PA(*pte);
    flags = PTE_FLAGS(*pte);
    if((mem = kalloc()) == 0)
      goto err;
    memmove(mem, (char*)pa, PGSIZE);
    8000162a:	6985                	lui	s3,0x1
    if((pte = walk(old, i, 0)) == 0)
    8000162c:	4601                	li	a2,0
    8000162e:	85ca                	mv	a1,s2
    80001630:	855a                	mv	a0,s6
    80001632:	00000097          	auipc	ra,0x0
    80001636:	a12080e7          	jalr	-1518(ra) # 80001044 <walk>
    8000163a:	c139                	beqz	a0,80001680 <uvmcopy+0x76>
    if((*pte & PTE_V) == 0)
    8000163c:	00053b83          	ld	s7,0(a0)
    80001640:	001bf793          	andi	a5,s7,1
    80001644:	c7b1                	beqz	a5,80001690 <uvmcopy+0x86>
    if((mem = kalloc()) == 0)
    80001646:	fffff097          	auipc	ra,0xfffff
    8000164a:	50a080e7          	jalr	1290(ra) # 80000b50 <kalloc>
    8000164e:	84aa                	mv	s1,a0
    80001650:	cd29                	beqz	a0,800016aa <uvmcopy+0xa0>
    pa = PTE2PA(*pte);
    80001652:	00abd593          	srli	a1,s7,0xa
    memmove(mem, (char*)pa, PGSIZE);
    80001656:	864e                	mv	a2,s3
    80001658:	05b2                	slli	a1,a1,0xc
    8000165a:	fffff097          	auipc	ra,0xfffff
    8000165e:	752080e7          	jalr	1874(ra) # 80000dac <memmove>
    if(mappages(new, i, PGSIZE, (uint64)mem, flags) != 0){
    80001662:	3ffbf713          	andi	a4,s7,1023
    80001666:	86a6                	mv	a3,s1
    80001668:	864e                	mv	a2,s3
    8000166a:	85ca                	mv	a1,s2
    8000166c:	8556                	mv	a0,s5
    8000166e:	00000097          	auipc	ra,0x0
    80001672:	aba080e7          	jalr	-1350(ra) # 80001128 <mappages>
    80001676:	e50d                	bnez	a0,800016a0 <uvmcopy+0x96>
  for(i = 0; i < sz; i += PGSIZE){
    80001678:	994e                	add	s2,s2,s3
    8000167a:	fb4969e3          	bltu	s2,s4,8000162c <uvmcopy+0x22>
    8000167e:	a081                	j	800016be <uvmcopy+0xb4>
      panic("uvmcopy: pte should exist");
    80001680:	00007517          	auipc	a0,0x7
    80001684:	ae850513          	addi	a0,a0,-1304 # 80008168 <etext+0x168>
    80001688:	fffff097          	auipc	ra,0xfffff
    8000168c:	ece080e7          	jalr	-306(ra) # 80000556 <panic>
      panic("uvmcopy: page not present");
    80001690:	00007517          	auipc	a0,0x7
    80001694:	af850513          	addi	a0,a0,-1288 # 80008188 <etext+0x188>
    80001698:	fffff097          	auipc	ra,0xfffff
    8000169c:	ebe080e7          	jalr	-322(ra) # 80000556 <panic>
      kfree(mem);
    800016a0:	8526                	mv	a0,s1
    800016a2:	fffff097          	auipc	ra,0xfffff
    800016a6:	3aa080e7          	jalr	938(ra) # 80000a4c <kfree>
    }
  }
  return 0;

 err:
  uvmunmap(new, 0, i / PGSIZE, 1);
    800016aa:	4685                	li	a3,1
    800016ac:	00c95613          	srli	a2,s2,0xc
    800016b0:	4581                	li	a1,0
    800016b2:	8556                	mv	a0,s5
    800016b4:	00000097          	auipc	ra,0x0
    800016b8:	c38080e7          	jalr	-968(ra) # 800012ec <uvmunmap>
  return -1;
    800016bc:	557d                	li	a0,-1
}
    800016be:	60a6                	ld	ra,72(sp)
    800016c0:	6406                	ld	s0,64(sp)
    800016c2:	74e2                	ld	s1,56(sp)
    800016c4:	7942                	ld	s2,48(sp)
    800016c6:	79a2                	ld	s3,40(sp)
    800016c8:	7a02                	ld	s4,32(sp)
    800016ca:	6ae2                	ld	s5,24(sp)
    800016cc:	6b42                	ld	s6,16(sp)
    800016ce:	6ba2                	ld	s7,8(sp)
    800016d0:	6161                	addi	sp,sp,80
    800016d2:	8082                	ret
  return 0;
    800016d4:	4501                	li	a0,0
}
    800016d6:	8082                	ret

00000000800016d8 <uvmclear>:

// mark a PTE invalid for user access.
// used by exec for the user stack guard page.
void
uvmclear(pagetable_t pagetable, uint64 va)
{
    800016d8:	1141                	addi	sp,sp,-16
    800016da:	e406                	sd	ra,8(sp)
    800016dc:	e022                	sd	s0,0(sp)
    800016de:	0800                	addi	s0,sp,16
  pte_t *pte;
  
  pte = walk(pagetable, va, 0);
    800016e0:	4601                	li	a2,0
    800016e2:	00000097          	auipc	ra,0x0
    800016e6:	962080e7          	jalr	-1694(ra) # 80001044 <walk>
  if(pte == 0)
    800016ea:	c901                	beqz	a0,800016fa <uvmclear+0x22>
    panic("uvmclear");
  *pte &= ~PTE_U;
    800016ec:	611c                	ld	a5,0(a0)
    800016ee:	9bbd                	andi	a5,a5,-17
    800016f0:	e11c                	sd	a5,0(a0)
}
    800016f2:	60a2                	ld	ra,8(sp)
    800016f4:	6402                	ld	s0,0(sp)
    800016f6:	0141                	addi	sp,sp,16
    800016f8:	8082                	ret
    panic("uvmclear");
    800016fa:	00007517          	auipc	a0,0x7
    800016fe:	aae50513          	addi	a0,a0,-1362 # 800081a8 <etext+0x1a8>
    80001702:	fffff097          	auipc	ra,0xfffff
    80001706:	e54080e7          	jalr	-428(ra) # 80000556 <panic>

000000008000170a <copyout>:
int
copyout(pagetable_t pagetable, uint64 dstva, char *src, uint64 len)
{
  uint64 n, va0, pa0;

  while(len > 0){
    8000170a:	c6bd                	beqz	a3,80001778 <copyout+0x6e>
{
    8000170c:	715d                	addi	sp,sp,-80
    8000170e:	e486                	sd	ra,72(sp)
    80001710:	e0a2                	sd	s0,64(sp)
    80001712:	fc26                	sd	s1,56(sp)
    80001714:	f84a                	sd	s2,48(sp)
    80001716:	f44e                	sd	s3,40(sp)
    80001718:	f052                	sd	s4,32(sp)
    8000171a:	ec56                	sd	s5,24(sp)
    8000171c:	e85a                	sd	s6,16(sp)
    8000171e:	e45e                	sd	s7,8(sp)
    80001720:	e062                	sd	s8,0(sp)
    80001722:	0880                	addi	s0,sp,80
    80001724:	8b2a                	mv	s6,a0
    80001726:	8c2e                	mv	s8,a1
    80001728:	8a32                	mv	s4,a2
    8000172a:	89b6                	mv	s3,a3
    va0 = PGROUNDDOWN(dstva);
    8000172c:	7bfd                	lui	s7,0xfffff
    pa0 = walkaddr(pagetable, va0);
    if(pa0 == 0)
      return -1;
    n = PGSIZE - (dstva - va0);
    8000172e:	6a85                	lui	s5,0x1
    80001730:	a015                	j	80001754 <copyout+0x4a>
    if(n > len)
      n = len;
    memmove((void *)(pa0 + (dstva - va0)), src, n);
    80001732:	9562                	add	a0,a0,s8
    80001734:	0004861b          	sext.w	a2,s1
    80001738:	85d2                	mv	a1,s4
    8000173a:	41250533          	sub	a0,a0,s2
    8000173e:	fffff097          	auipc	ra,0xfffff
    80001742:	66e080e7          	jalr	1646(ra) # 80000dac <memmove>

    len -= n;
    80001746:	409989b3          	sub	s3,s3,s1
    src += n;
    8000174a:	9a26                	add	s4,s4,s1
    dstva = va0 + PGSIZE;
    8000174c:	01590c33          	add	s8,s2,s5
  while(len > 0){
    80001750:	02098263          	beqz	s3,80001774 <copyout+0x6a>
    va0 = PGROUNDDOWN(dstva);
    80001754:	017c7933          	and	s2,s8,s7
    pa0 = walkaddr(pagetable, va0);
    80001758:	85ca                	mv	a1,s2
    8000175a:	855a                	mv	a0,s6
    8000175c:	00000097          	auipc	ra,0x0
    80001760:	98e080e7          	jalr	-1650(ra) # 800010ea <walkaddr>
    if(pa0 == 0)
    80001764:	cd01                	beqz	a0,8000177c <copyout+0x72>
    n = PGSIZE - (dstva - va0);
    80001766:	418904b3          	sub	s1,s2,s8
    8000176a:	94d6                	add	s1,s1,s5
    if(n > len)
    8000176c:	fc99f3e3          	bgeu	s3,s1,80001732 <copyout+0x28>
    80001770:	84ce                	mv	s1,s3
    80001772:	b7c1                	j	80001732 <copyout+0x28>
  }
  return 0;
    80001774:	4501                	li	a0,0
    80001776:	a021                	j	8000177e <copyout+0x74>
    80001778:	4501                	li	a0,0
}
    8000177a:	8082                	ret
      return -1;
    8000177c:	557d                	li	a0,-1
}
    8000177e:	60a6                	ld	ra,72(sp)
    80001780:	6406                	ld	s0,64(sp)
    80001782:	74e2                	ld	s1,56(sp)
    80001784:	7942                	ld	s2,48(sp)
    80001786:	79a2                	ld	s3,40(sp)
    80001788:	7a02                	ld	s4,32(sp)
    8000178a:	6ae2                	ld	s5,24(sp)
    8000178c:	6b42                	ld	s6,16(sp)
    8000178e:	6ba2                	ld	s7,8(sp)
    80001790:	6c02                	ld	s8,0(sp)
    80001792:	6161                	addi	sp,sp,80
    80001794:	8082                	ret

0000000080001796 <copyin>:
int
copyin(pagetable_t pagetable, char *dst, uint64 srcva, uint64 len)
{
  uint64 n, va0, pa0;

  while(len > 0){
    80001796:	caa5                	beqz	a3,80001806 <copyin+0x70>
{
    80001798:	715d                	addi	sp,sp,-80
    8000179a:	e486                	sd	ra,72(sp)
    8000179c:	e0a2                	sd	s0,64(sp)
    8000179e:	fc26                	sd	s1,56(sp)
    800017a0:	f84a                	sd	s2,48(sp)
    800017a2:	f44e                	sd	s3,40(sp)
    800017a4:	f052                	sd	s4,32(sp)
    800017a6:	ec56                	sd	s5,24(sp)
    800017a8:	e85a                	sd	s6,16(sp)
    800017aa:	e45e                	sd	s7,8(sp)
    800017ac:	e062                	sd	s8,0(sp)
    800017ae:	0880                	addi	s0,sp,80
    800017b0:	8b2a                	mv	s6,a0
    800017b2:	8a2e                	mv	s4,a1
    800017b4:	8c32                	mv	s8,a2
    800017b6:	89b6                	mv	s3,a3
    va0 = PGROUNDDOWN(srcva);
    800017b8:	7bfd                	lui	s7,0xfffff
    pa0 = walkaddr(pagetable, va0);
    if(pa0 == 0)
      return -1;
    n = PGSIZE - (srcva - va0);
    800017ba:	6a85                	lui	s5,0x1
    800017bc:	a01d                	j	800017e2 <copyin+0x4c>
    if(n > len)
      n = len;
    memmove(dst, (void *)(pa0 + (srcva - va0)), n);
    800017be:	018505b3          	add	a1,a0,s8
    800017c2:	0004861b          	sext.w	a2,s1
    800017c6:	412585b3          	sub	a1,a1,s2
    800017ca:	8552                	mv	a0,s4
    800017cc:	fffff097          	auipc	ra,0xfffff
    800017d0:	5e0080e7          	jalr	1504(ra) # 80000dac <memmove>

    len -= n;
    800017d4:	409989b3          	sub	s3,s3,s1
    dst += n;
    800017d8:	9a26                	add	s4,s4,s1
    srcva = va0 + PGSIZE;
    800017da:	01590c33          	add	s8,s2,s5
  while(len > 0){
    800017de:	02098263          	beqz	s3,80001802 <copyin+0x6c>
    va0 = PGROUNDDOWN(srcva);
    800017e2:	017c7933          	and	s2,s8,s7
    pa0 = walkaddr(pagetable, va0);
    800017e6:	85ca                	mv	a1,s2
    800017e8:	855a                	mv	a0,s6
    800017ea:	00000097          	auipc	ra,0x0
    800017ee:	900080e7          	jalr	-1792(ra) # 800010ea <walkaddr>
    if(pa0 == 0)
    800017f2:	cd01                	beqz	a0,8000180a <copyin+0x74>
    n = PGSIZE - (srcva - va0);
    800017f4:	418904b3          	sub	s1,s2,s8
    800017f8:	94d6                	add	s1,s1,s5
    if(n > len)
    800017fa:	fc99f2e3          	bgeu	s3,s1,800017be <copyin+0x28>
    800017fe:	84ce                	mv	s1,s3
    80001800:	bf7d                	j	800017be <copyin+0x28>
  }
  return 0;
    80001802:	4501                	li	a0,0
    80001804:	a021                	j	8000180c <copyin+0x76>
    80001806:	4501                	li	a0,0
}
    80001808:	8082                	ret
      return -1;
    8000180a:	557d                	li	a0,-1
}
    8000180c:	60a6                	ld	ra,72(sp)
    8000180e:	6406                	ld	s0,64(sp)
    80001810:	74e2                	ld	s1,56(sp)
    80001812:	7942                	ld	s2,48(sp)
    80001814:	79a2                	ld	s3,40(sp)
    80001816:	7a02                	ld	s4,32(sp)
    80001818:	6ae2                	ld	s5,24(sp)
    8000181a:	6b42                	ld	s6,16(sp)
    8000181c:	6ba2                	ld	s7,8(sp)
    8000181e:	6c02                	ld	s8,0(sp)
    80001820:	6161                	addi	sp,sp,80
    80001822:	8082                	ret

0000000080001824 <copyinstr>:
copyinstr(pagetable_t pagetable, char *dst, uint64 srcva, uint64 max)
{
  uint64 n, va0, pa0;
  int got_null = 0;

  while(got_null == 0 && max > 0){
    80001824:	cad5                	beqz	a3,800018d8 <copyinstr+0xb4>
{
    80001826:	715d                	addi	sp,sp,-80
    80001828:	e486                	sd	ra,72(sp)
    8000182a:	e0a2                	sd	s0,64(sp)
    8000182c:	fc26                	sd	s1,56(sp)
    8000182e:	f84a                	sd	s2,48(sp)
    80001830:	f44e                	sd	s3,40(sp)
    80001832:	f052                	sd	s4,32(sp)
    80001834:	ec56                	sd	s5,24(sp)
    80001836:	e85a                	sd	s6,16(sp)
    80001838:	e45e                	sd	s7,8(sp)
    8000183a:	0880                	addi	s0,sp,80
    8000183c:	8aaa                	mv	s5,a0
    8000183e:	84ae                	mv	s1,a1
    80001840:	8bb2                	mv	s7,a2
    80001842:	89b6                	mv	s3,a3
    va0 = PGROUNDDOWN(srcva);
    80001844:	7b7d                	lui	s6,0xfffff
    pa0 = walkaddr(pagetable, va0);
    if(pa0 == 0)
      return -1;
    n = PGSIZE - (srcva - va0);
    80001846:	6a05                	lui	s4,0x1
    80001848:	a82d                	j	80001882 <copyinstr+0x5e>
      n = max;

    char *p = (char *) (pa0 + (srcva - va0));
    while(n > 0){
      if(*p == '\0'){
        *dst = '\0';
    8000184a:	00078023          	sb	zero,0(a5)
        got_null = 1;
    8000184e:	4785                	li	a5,1
      dst++;
    }

    srcva = va0 + PGSIZE;
  }
  if(got_null){
    80001850:	0017c793          	xori	a5,a5,1
    80001854:	40f0053b          	negw	a0,a5
    return 0;
  } else {
    return -1;
  }
}
    80001858:	60a6                	ld	ra,72(sp)
    8000185a:	6406                	ld	s0,64(sp)
    8000185c:	74e2                	ld	s1,56(sp)
    8000185e:	7942                	ld	s2,48(sp)
    80001860:	79a2                	ld	s3,40(sp)
    80001862:	7a02                	ld	s4,32(sp)
    80001864:	6ae2                	ld	s5,24(sp)
    80001866:	6b42                	ld	s6,16(sp)
    80001868:	6ba2                	ld	s7,8(sp)
    8000186a:	6161                	addi	sp,sp,80
    8000186c:	8082                	ret
    8000186e:	fff98713          	addi	a4,s3,-1 # fff <_entry-0x7ffff001>
    80001872:	9726                	add	a4,a4,s1
      --max;
    80001874:	40b709b3          	sub	s3,a4,a1
    srcva = va0 + PGSIZE;
    80001878:	01490bb3          	add	s7,s2,s4
  while(got_null == 0 && max > 0){
    8000187c:	04e58663          	beq	a1,a4,800018c8 <copyinstr+0xa4>
{
    80001880:	84be                	mv	s1,a5
    va0 = PGROUNDDOWN(srcva);
    80001882:	016bf933          	and	s2,s7,s6
    pa0 = walkaddr(pagetable, va0);
    80001886:	85ca                	mv	a1,s2
    80001888:	8556                	mv	a0,s5
    8000188a:	00000097          	auipc	ra,0x0
    8000188e:	860080e7          	jalr	-1952(ra) # 800010ea <walkaddr>
    if(pa0 == 0)
    80001892:	cd0d                	beqz	a0,800018cc <copyinstr+0xa8>
    n = PGSIZE - (srcva - va0);
    80001894:	417906b3          	sub	a3,s2,s7
    80001898:	96d2                	add	a3,a3,s4
    if(n > max)
    8000189a:	00d9f363          	bgeu	s3,a3,800018a0 <copyinstr+0x7c>
    8000189e:	86ce                	mv	a3,s3
    while(n > 0){
    800018a0:	ca85                	beqz	a3,800018d0 <copyinstr+0xac>
    char *p = (char *) (pa0 + (srcva - va0));
    800018a2:	01750633          	add	a2,a0,s7
    800018a6:	41260633          	sub	a2,a2,s2
    800018aa:	87a6                	mv	a5,s1
      if(*p == '\0'){
    800018ac:	8e05                	sub	a2,a2,s1
    while(n > 0){
    800018ae:	96a6                	add	a3,a3,s1
    800018b0:	85be                	mv	a1,a5
      if(*p == '\0'){
    800018b2:	00f60733          	add	a4,a2,a5
    800018b6:	00074703          	lbu	a4,0(a4) # fffffffffffff000 <end+0xffffffff7ffd5000>
    800018ba:	db41                	beqz	a4,8000184a <copyinstr+0x26>
        *dst = *p;
    800018bc:	00e78023          	sb	a4,0(a5)
      dst++;
    800018c0:	0785                	addi	a5,a5,1
    while(n > 0){
    800018c2:	fed797e3          	bne	a5,a3,800018b0 <copyinstr+0x8c>
    800018c6:	b765                	j	8000186e <copyinstr+0x4a>
    800018c8:	4781                	li	a5,0
    800018ca:	b759                	j	80001850 <copyinstr+0x2c>
      return -1;
    800018cc:	557d                	li	a0,-1
    800018ce:	b769                	j	80001858 <copyinstr+0x34>
    srcva = va0 + PGSIZE;
    800018d0:	6b85                	lui	s7,0x1
    800018d2:	9bca                	add	s7,s7,s2
    800018d4:	87a6                	mv	a5,s1
    800018d6:	b76d                	j	80001880 <copyinstr+0x5c>
  int got_null = 0;
    800018d8:	4781                	li	a5,0
  if(got_null){
    800018da:	0017c793          	xori	a5,a5,1
    800018de:	40f0053b          	negw	a0,a5
}
    800018e2:	8082                	ret

00000000800018e4 <proc_mapstacks>:
// Lock global usado por wait() para evitar condiciones de carrera
struct spinlock wait_lock;

// Mapea un stack de kernel para cada proceso
void
proc_mapstacks(pagetable_t kpgtbl) {
    800018e4:	715d                	addi	sp,sp,-80
    800018e6:	e486                	sd	ra,72(sp)
    800018e8:	e0a2                	sd	s0,64(sp)
    800018ea:	fc26                	sd	s1,56(sp)
    800018ec:	f84a                	sd	s2,48(sp)
    800018ee:	f44e                	sd	s3,40(sp)
    800018f0:	f052                	sd	s4,32(sp)
    800018f2:	ec56                	sd	s5,24(sp)
    800018f4:	e85a                	sd	s6,16(sp)
    800018f6:	e45e                	sd	s7,8(sp)
    800018f8:	e062                	sd	s8,0(sp)
    800018fa:	0880                	addi	s0,sp,80
    800018fc:	8a2a                	mv	s4,a0
  struct proc *p;
  
  for(p = proc; p < &proc[NPROC]; p++) {
    800018fe:	00013497          	auipc	s1,0x13
    80001902:	dd248493          	addi	s1,s1,-558 # 800146d0 <proc>
    char *pa = kalloc(); // se reserva memoria fisica
    if(pa == 0)
      panic("kalloc");
    uint64 va = KSTACK((int) (p - proc)); // direccion virtual del stack del proceso
    80001906:	8c26                	mv	s8,s1
    80001908:	ff048937          	lui	s2,0xff048
    8000190c:	dc190913          	addi	s2,s2,-575 # ffffffffff047dc1 <end+0xffffffff7f01ddc1>
    80001910:	0932                	slli	s2,s2,0xc
    80001912:	1f790913          	addi	s2,s2,503
    80001916:	093e                	slli	s2,s2,0xf
    80001918:	23f90913          	addi	s2,s2,575
    8000191c:	0932                	slli	s2,s2,0xc
    8000191e:	e0990913          	addi	s2,s2,-503
    80001922:	040009b7          	lui	s3,0x4000
    80001926:	19fd                	addi	s3,s3,-1 # 3ffffff <_entry-0x7c000001>
    80001928:	09b2                	slli	s3,s3,0xc
    // Se mapea el stack del kernel en el espacio del kernel
    kvmmap(kpgtbl, va, (uint64)pa, PGSIZE, PTE_R | PTE_W);
    8000192a:	4b99                	li	s7,6
    8000192c:	6b05                	lui	s6,0x1
  for(p = proc; p < &proc[NPROC]; p++) {
    8000192e:	0001aa97          	auipc	s5,0x1a
    80001932:	fa2a8a93          	addi	s5,s5,-94 # 8001b8d0 <tickslock>
    char *pa = kalloc(); // se reserva memoria fisica
    80001936:	fffff097          	auipc	ra,0xfffff
    8000193a:	21a080e7          	jalr	538(ra) # 80000b50 <kalloc>
    8000193e:	862a                	mv	a2,a0
    if(pa == 0)
    80001940:	c131                	beqz	a0,80001984 <proc_mapstacks+0xa0>
    uint64 va = KSTACK((int) (p - proc)); // direccion virtual del stack del proceso
    80001942:	418485b3          	sub	a1,s1,s8
    80001946:	858d                	srai	a1,a1,0x3
    80001948:	032585b3          	mul	a1,a1,s2
    8000194c:	05b6                	slli	a1,a1,0xd
    8000194e:	6789                	lui	a5,0x2
    80001950:	9dbd                	addw	a1,a1,a5
    kvmmap(kpgtbl, va, (uint64)pa, PGSIZE, PTE_R | PTE_W);
    80001952:	875e                	mv	a4,s7
    80001954:	86da                	mv	a3,s6
    80001956:	40b985b3          	sub	a1,s3,a1
    8000195a:	8552                	mv	a0,s4
    8000195c:	00000097          	auipc	ra,0x0
    80001960:	86e080e7          	jalr	-1938(ra) # 800011ca <kvmmap>
  for(p = proc; p < &proc[NPROC]; p++) {
    80001964:	1c848493          	addi	s1,s1,456
    80001968:	fd5497e3          	bne	s1,s5,80001936 <proc_mapstacks+0x52>
  }
}
    8000196c:	60a6                	ld	ra,72(sp)
    8000196e:	6406                	ld	s0,64(sp)
    80001970:	74e2                	ld	s1,56(sp)
    80001972:	7942                	ld	s2,48(sp)
    80001974:	79a2                	ld	s3,40(sp)
    80001976:	7a02                	ld	s4,32(sp)
    80001978:	6ae2                	ld	s5,24(sp)
    8000197a:	6b42                	ld	s6,16(sp)
    8000197c:	6ba2                	ld	s7,8(sp)
    8000197e:	6c02                	ld	s8,0(sp)
    80001980:	6161                	addi	sp,sp,80
    80001982:	8082                	ret
      panic("kalloc");
    80001984:	00007517          	auipc	a0,0x7
    80001988:	83450513          	addi	a0,a0,-1996 # 800081b8 <etext+0x1b8>
    8000198c:	fffff097          	auipc	ra,0xfffff
    80001990:	bca080e7          	jalr	-1078(ra) # 80000556 <panic>

0000000080001994 <procinit>:

// Inicializa la tabla de procesos al arrancar el sistema
void
procinit(void)
{
    80001994:	7139                	addi	sp,sp,-64
    80001996:	fc06                	sd	ra,56(sp)
    80001998:	f822                	sd	s0,48(sp)
    8000199a:	f426                	sd	s1,40(sp)
    8000199c:	f04a                	sd	s2,32(sp)
    8000199e:	ec4e                	sd	s3,24(sp)
    800019a0:	e852                	sd	s4,16(sp)
    800019a2:	e456                	sd	s5,8(sp)
    800019a4:	e05a                	sd	s6,0(sp)
    800019a6:	0080                	addi	s0,sp,64
  struct proc *p;
  
  initlock(&pid_lock, "nextpid");   // lock para generar PIDs
    800019a8:	00007597          	auipc	a1,0x7
    800019ac:	81858593          	addi	a1,a1,-2024 # 800081c0 <etext+0x1c0>
    800019b0:	00013517          	auipc	a0,0x13
    800019b4:	8f050513          	addi	a0,a0,-1808 # 800142a0 <pid_lock>
    800019b8:	fffff097          	auipc	ra,0xfffff
    800019bc:	202080e7          	jalr	514(ra) # 80000bba <initlock>
  initlock(&wait_lock, "wait_lock");// lock para wait()
    800019c0:	00007597          	auipc	a1,0x7
    800019c4:	80858593          	addi	a1,a1,-2040 # 800081c8 <etext+0x1c8>
    800019c8:	00013517          	auipc	a0,0x13
    800019cc:	8f050513          	addi	a0,a0,-1808 # 800142b8 <wait_lock>
    800019d0:	fffff097          	auipc	ra,0xfffff
    800019d4:	1ea080e7          	jalr	490(ra) # 80000bba <initlock>

  for(p = proc; p < &proc[NPROC]; p++) {
    800019d8:	00013497          	auipc	s1,0x13
    800019dc:	cf848493          	addi	s1,s1,-776 # 800146d0 <proc>
      initlock(&p->lock, "proc");   // lock por proceso
    800019e0:	00006b17          	auipc	s6,0x6
    800019e4:	7f8b0b13          	addi	s6,s6,2040 # 800081d8 <etext+0x1d8>
      p->kstack = KSTACK((int) (p - proc)); // direccion del stack del kernel
    800019e8:	8aa6                	mv	s5,s1
    800019ea:	ff048937          	lui	s2,0xff048
    800019ee:	dc190913          	addi	s2,s2,-575 # ffffffffff047dc1 <end+0xffffffff7f01ddc1>
    800019f2:	0932                	slli	s2,s2,0xc
    800019f4:	1f790913          	addi	s2,s2,503
    800019f8:	093e                	slli	s2,s2,0xf
    800019fa:	23f90913          	addi	s2,s2,575
    800019fe:	0932                	slli	s2,s2,0xc
    80001a00:	e0990913          	addi	s2,s2,-503
    80001a04:	040009b7          	lui	s3,0x4000
    80001a08:	19fd                	addi	s3,s3,-1 # 3ffffff <_entry-0x7c000001>
    80001a0a:	09b2                	slli	s3,s3,0xc
  for(p = proc; p < &proc[NPROC]; p++) {
    80001a0c:	0001aa17          	auipc	s4,0x1a
    80001a10:	ec4a0a13          	addi	s4,s4,-316 # 8001b8d0 <tickslock>
      initlock(&p->lock, "proc");   // lock por proceso
    80001a14:	85da                	mv	a1,s6
    80001a16:	8526                	mv	a0,s1
    80001a18:	fffff097          	auipc	ra,0xfffff
    80001a1c:	1a2080e7          	jalr	418(ra) # 80000bba <initlock>
      p->kstack = KSTACK((int) (p - proc)); // direccion del stack del kernel
    80001a20:	415487b3          	sub	a5,s1,s5
    80001a24:	878d                	srai	a5,a5,0x3
    80001a26:	032787b3          	mul	a5,a5,s2
    80001a2a:	07b6                	slli	a5,a5,0xd
    80001a2c:	6709                	lui	a4,0x2
    80001a2e:	9fb9                	addw	a5,a5,a4
    80001a30:	40f987b3          	sub	a5,s3,a5
    80001a34:	e0bc                	sd	a5,64(s1)
  for(p = proc; p < &proc[NPROC]; p++) {
    80001a36:	1c848493          	addi	s1,s1,456
    80001a3a:	fd449de3          	bne	s1,s4,80001a14 <procinit+0x80>
  }
}
    80001a3e:	70e2                	ld	ra,56(sp)
    80001a40:	7442                	ld	s0,48(sp)
    80001a42:	74a2                	ld	s1,40(sp)
    80001a44:	7902                	ld	s2,32(sp)
    80001a46:	69e2                	ld	s3,24(sp)
    80001a48:	6a42                	ld	s4,16(sp)
    80001a4a:	6aa2                	ld	s5,8(sp)
    80001a4c:	6b02                	ld	s6,0(sp)
    80001a4e:	6121                	addi	sp,sp,64
    80001a50:	8082                	ret

0000000080001a52 <cpuid>:

// Retorna el ID del CPU actual
int
cpuid()
{
    80001a52:	1141                	addi	sp,sp,-16
    80001a54:	e406                	sd	ra,8(sp)
    80001a56:	e022                	sd	s0,0(sp)
    80001a58:	0800                	addi	s0,sp,16
// this core's hartid (core number), the index into cpus[].
static inline uint64
r_tp()
{
  uint64 x;
  asm volatile("mv %0, tp" : "=r" (x) );
    80001a5a:	8512                	mv	a0,tp
  int id = r_tp(); // tp contiene el hartid
  return id;
}
    80001a5c:	2501                	sext.w	a0,a0
    80001a5e:	60a2                	ld	ra,8(sp)
    80001a60:	6402                	ld	s0,0(sp)
    80001a62:	0141                	addi	sp,sp,16
    80001a64:	8082                	ret

0000000080001a66 <mycpu>:

// Retorna la estructura cpu correspondiente al CPU actual
struct cpu*
mycpu(void) {
    80001a66:	1141                	addi	sp,sp,-16
    80001a68:	e406                	sd	ra,8(sp)
    80001a6a:	e022                	sd	s0,0(sp)
    80001a6c:	0800                	addi	s0,sp,16
    80001a6e:	8792                	mv	a5,tp
  int id = cpuid();
  struct cpu *c = &cpus[id];
    80001a70:	2781                	sext.w	a5,a5
    80001a72:	079e                	slli	a5,a5,0x7
  return c;
}
    80001a74:	00013517          	auipc	a0,0x13
    80001a78:	85c50513          	addi	a0,a0,-1956 # 800142d0 <cpus>
    80001a7c:	953e                	add	a0,a0,a5
    80001a7e:	60a2                	ld	ra,8(sp)
    80001a80:	6402                	ld	s0,0(sp)
    80001a82:	0141                	addi	sp,sp,16
    80001a84:	8082                	ret

0000000080001a86 <myproc>:

// Retorna el proceso actual en ejecucion
struct proc*
myproc(void) {
    80001a86:	1101                	addi	sp,sp,-32
    80001a88:	ec06                	sd	ra,24(sp)
    80001a8a:	e822                	sd	s0,16(sp)
    80001a8c:	e426                	sd	s1,8(sp)
    80001a8e:	1000                	addi	s0,sp,32
  push_off(); // deshabilitar interrupciones
    80001a90:	fffff097          	auipc	ra,0xfffff
    80001a94:	174080e7          	jalr	372(ra) # 80000c04 <push_off>
    80001a98:	8792                	mv	a5,tp
  struct cpu *c = mycpu(); 
  struct proc *p = c->proc;
    80001a9a:	2781                	sext.w	a5,a5
    80001a9c:	079e                	slli	a5,a5,0x7
    80001a9e:	00013717          	auipc	a4,0x13
    80001aa2:	80270713          	addi	a4,a4,-2046 # 800142a0 <pid_lock>
    80001aa6:	97ba                	add	a5,a5,a4
    80001aa8:	7b9c                	ld	a5,48(a5)
    80001aaa:	84be                	mv	s1,a5
  pop_off();
    80001aac:	fffff097          	auipc	ra,0xfffff
    80001ab0:	1fc080e7          	jalr	508(ra) # 80000ca8 <pop_off>
  return p;
}
    80001ab4:	8526                	mv	a0,s1
    80001ab6:	60e2                	ld	ra,24(sp)
    80001ab8:	6442                	ld	s0,16(sp)
    80001aba:	64a2                	ld	s1,8(sp)
    80001abc:	6105                	addi	sp,sp,32
    80001abe:	8082                	ret

0000000080001ac0 <forkret>:
}

// Entrada del primer scheduler despues de fork
void
forkret(void)
{
    80001ac0:	1141                	addi	sp,sp,-16
    80001ac2:	e406                	sd	ra,8(sp)
    80001ac4:	e022                	sd	s0,0(sp)
    80001ac6:	0800                	addi	s0,sp,16
  static int first = 1;

  release(&myproc()->lock);
    80001ac8:	00000097          	auipc	ra,0x0
    80001acc:	fbe080e7          	jalr	-66(ra) # 80001a86 <myproc>
    80001ad0:	fffff097          	auipc	ra,0xfffff
    80001ad4:	234080e7          	jalr	564(ra) # 80000d04 <release>

  if (first) {
    80001ad8:	0000a797          	auipc	a5,0xa
    80001adc:	9f87a783          	lw	a5,-1544(a5) # 8000b4d0 <first.1>
    80001ae0:	eb89                	bnez	a5,80001af2 <forkret+0x32>
    first = 0;
    fsinit(ROOTDEV);
  }

  usertrapret();
    80001ae2:	00001097          	auipc	ra,0x1
    80001ae6:	00c080e7          	jalr	12(ra) # 80002aee <usertrapret>
}
    80001aea:	60a2                	ld	ra,8(sp)
    80001aec:	6402                	ld	s0,0(sp)
    80001aee:	0141                	addi	sp,sp,16
    80001af0:	8082                	ret
    first = 0;
    80001af2:	0000a797          	auipc	a5,0xa
    80001af6:	9c07af23          	sw	zero,-1570(a5) # 8000b4d0 <first.1>
    fsinit(ROOTDEV);
    80001afa:	4505                	li	a0,1
    80001afc:	00002097          	auipc	ra,0x2
    80001b00:	f2e080e7          	jalr	-210(ra) # 80003a2a <fsinit>
    80001b04:	bff9                	j	80001ae2 <forkret+0x22>

0000000080001b06 <allocpid>:
allocpid() {
    80001b06:	1101                	addi	sp,sp,-32
    80001b08:	ec06                	sd	ra,24(sp)
    80001b0a:	e822                	sd	s0,16(sp)
    80001b0c:	e426                	sd	s1,8(sp)
    80001b0e:	1000                	addi	s0,sp,32
  acquire(&pid_lock);
    80001b10:	00012517          	auipc	a0,0x12
    80001b14:	79050513          	addi	a0,a0,1936 # 800142a0 <pid_lock>
    80001b18:	fffff097          	auipc	ra,0xfffff
    80001b1c:	13c080e7          	jalr	316(ra) # 80000c54 <acquire>
  pid = nextpid;
    80001b20:	0000a797          	auipc	a5,0xa
    80001b24:	9b478793          	addi	a5,a5,-1612 # 8000b4d4 <nextpid>
    80001b28:	4384                	lw	s1,0(a5)
  nextpid = nextpid + 1; // incrementa PID
    80001b2a:	0014871b          	addiw	a4,s1,1
    80001b2e:	c398                	sw	a4,0(a5)
  release(&pid_lock);
    80001b30:	00012517          	auipc	a0,0x12
    80001b34:	77050513          	addi	a0,a0,1904 # 800142a0 <pid_lock>
    80001b38:	fffff097          	auipc	ra,0xfffff
    80001b3c:	1cc080e7          	jalr	460(ra) # 80000d04 <release>
}
    80001b40:	8526                	mv	a0,s1
    80001b42:	60e2                	ld	ra,24(sp)
    80001b44:	6442                	ld	s0,16(sp)
    80001b46:	64a2                	ld	s1,8(sp)
    80001b48:	6105                	addi	sp,sp,32
    80001b4a:	8082                	ret

0000000080001b4c <proc_pagetable>:
{
    80001b4c:	1101                	addi	sp,sp,-32
    80001b4e:	ec06                	sd	ra,24(sp)
    80001b50:	e822                	sd	s0,16(sp)
    80001b52:	e426                	sd	s1,8(sp)
    80001b54:	e04a                	sd	s2,0(sp)
    80001b56:	1000                	addi	s0,sp,32
    80001b58:	892a                	mv	s2,a0
  pagetable = uvmcreate(); // tabla vacia
    80001b5a:	00000097          	auipc	ra,0x0
    80001b5e:	866080e7          	jalr	-1946(ra) # 800013c0 <uvmcreate>
    80001b62:	84aa                	mv	s1,a0
  if(pagetable == 0)
    80001b64:	c121                	beqz	a0,80001ba4 <proc_pagetable+0x58>
  if(mappages(pagetable, TRAMPOLINE, PGSIZE,
    80001b66:	4729                	li	a4,10
    80001b68:	00005697          	auipc	a3,0x5
    80001b6c:	49868693          	addi	a3,a3,1176 # 80007000 <_trampoline>
    80001b70:	6605                	lui	a2,0x1
    80001b72:	040005b7          	lui	a1,0x4000
    80001b76:	15fd                	addi	a1,a1,-1 # 3ffffff <_entry-0x7c000001>
    80001b78:	05b2                	slli	a1,a1,0xc
    80001b7a:	fffff097          	auipc	ra,0xfffff
    80001b7e:	5ae080e7          	jalr	1454(ra) # 80001128 <mappages>
    80001b82:	02054863          	bltz	a0,80001bb2 <proc_pagetable+0x66>
  if(mappages(pagetable, TRAPFRAME, PGSIZE,
    80001b86:	4719                	li	a4,6
    80001b88:	05893683          	ld	a3,88(s2)
    80001b8c:	6605                	lui	a2,0x1
    80001b8e:	020005b7          	lui	a1,0x2000
    80001b92:	15fd                	addi	a1,a1,-1 # 1ffffff <_entry-0x7e000001>
    80001b94:	05b6                	slli	a1,a1,0xd
    80001b96:	8526                	mv	a0,s1
    80001b98:	fffff097          	auipc	ra,0xfffff
    80001b9c:	590080e7          	jalr	1424(ra) # 80001128 <mappages>
    80001ba0:	02054163          	bltz	a0,80001bc2 <proc_pagetable+0x76>
}
    80001ba4:	8526                	mv	a0,s1
    80001ba6:	60e2                	ld	ra,24(sp)
    80001ba8:	6442                	ld	s0,16(sp)
    80001baa:	64a2                	ld	s1,8(sp)
    80001bac:	6902                	ld	s2,0(sp)
    80001bae:	6105                	addi	sp,sp,32
    80001bb0:	8082                	ret
    uvmfree(pagetable, 0);
    80001bb2:	4581                	li	a1,0
    80001bb4:	8526                	mv	a0,s1
    80001bb6:	00000097          	auipc	ra,0x0
    80001bba:	a1a080e7          	jalr	-1510(ra) # 800015d0 <uvmfree>
    return 0;
    80001bbe:	4481                	li	s1,0
    80001bc0:	b7d5                	j	80001ba4 <proc_pagetable+0x58>
    uvmunmap(pagetable, TRAMPOLINE, 1, 0);
    80001bc2:	4681                	li	a3,0
    80001bc4:	4605                	li	a2,1
    80001bc6:	040005b7          	lui	a1,0x4000
    80001bca:	15fd                	addi	a1,a1,-1 # 3ffffff <_entry-0x7c000001>
    80001bcc:	05b2                	slli	a1,a1,0xc
    80001bce:	8526                	mv	a0,s1
    80001bd0:	fffff097          	auipc	ra,0xfffff
    80001bd4:	71c080e7          	jalr	1820(ra) # 800012ec <uvmunmap>
    uvmfree(pagetable, 0);
    80001bd8:	4581                	li	a1,0
    80001bda:	8526                	mv	a0,s1
    80001bdc:	00000097          	auipc	ra,0x0
    80001be0:	9f4080e7          	jalr	-1548(ra) # 800015d0 <uvmfree>
    return 0;
    80001be4:	4481                	li	s1,0
    80001be6:	bf7d                	j	80001ba4 <proc_pagetable+0x58>

0000000080001be8 <proc_freepagetable>:
{
    80001be8:	1101                	addi	sp,sp,-32
    80001bea:	ec06                	sd	ra,24(sp)
    80001bec:	e822                	sd	s0,16(sp)
    80001bee:	e426                	sd	s1,8(sp)
    80001bf0:	e04a                	sd	s2,0(sp)
    80001bf2:	1000                	addi	s0,sp,32
    80001bf4:	84aa                	mv	s1,a0
    80001bf6:	892e                	mv	s2,a1
  uvmunmap(pagetable, TRAMPOLINE, 1, 0);
    80001bf8:	4681                	li	a3,0
    80001bfa:	4605                	li	a2,1
    80001bfc:	040005b7          	lui	a1,0x4000
    80001c00:	15fd                	addi	a1,a1,-1 # 3ffffff <_entry-0x7c000001>
    80001c02:	05b2                	slli	a1,a1,0xc
    80001c04:	fffff097          	auipc	ra,0xfffff
    80001c08:	6e8080e7          	jalr	1768(ra) # 800012ec <uvmunmap>
  uvmunmap(pagetable, TRAPFRAME, 1, 0);
    80001c0c:	4681                	li	a3,0
    80001c0e:	4605                	li	a2,1
    80001c10:	020005b7          	lui	a1,0x2000
    80001c14:	15fd                	addi	a1,a1,-1 # 1ffffff <_entry-0x7e000001>
    80001c16:	05b6                	slli	a1,a1,0xd
    80001c18:	8526                	mv	a0,s1
    80001c1a:	fffff097          	auipc	ra,0xfffff
    80001c1e:	6d2080e7          	jalr	1746(ra) # 800012ec <uvmunmap>
  uvmfree(pagetable, sz); // liberar memoria
    80001c22:	85ca                	mv	a1,s2
    80001c24:	8526                	mv	a0,s1
    80001c26:	00000097          	auipc	ra,0x0
    80001c2a:	9aa080e7          	jalr	-1622(ra) # 800015d0 <uvmfree>
}
    80001c2e:	60e2                	ld	ra,24(sp)
    80001c30:	6442                	ld	s0,16(sp)
    80001c32:	64a2                	ld	s1,8(sp)
    80001c34:	6902                	ld	s2,0(sp)
    80001c36:	6105                	addi	sp,sp,32
    80001c38:	8082                	ret

0000000080001c3a <freeproc>:
{
    80001c3a:	1101                	addi	sp,sp,-32
    80001c3c:	ec06                	sd	ra,24(sp)
    80001c3e:	e822                	sd	s0,16(sp)
    80001c40:	e426                	sd	s1,8(sp)
    80001c42:	1000                	addi	s0,sp,32
    80001c44:	84aa                	mv	s1,a0
  if(p->trapframe)
    80001c46:	6d28                	ld	a0,88(a0)
    80001c48:	c509                	beqz	a0,80001c52 <freeproc+0x18>
    kfree((void*)p->trapframe);
    80001c4a:	fffff097          	auipc	ra,0xfffff
    80001c4e:	e02080e7          	jalr	-510(ra) # 80000a4c <kfree>
  p->trapframe = 0;
    80001c52:	0404bc23          	sd	zero,88(s1)
  if(p->pagetable)
    80001c56:	68a8                	ld	a0,80(s1)
    80001c58:	c511                	beqz	a0,80001c64 <freeproc+0x2a>
    proc_freepagetable(p->pagetable, p->sz); // liberar memoria del usuario
    80001c5a:	64ac                	ld	a1,72(s1)
    80001c5c:	00000097          	auipc	ra,0x0
    80001c60:	f8c080e7          	jalr	-116(ra) # 80001be8 <proc_freepagetable>
  p->pagetable = 0;
    80001c64:	0404b823          	sd	zero,80(s1)
  p->sz = 0;
    80001c68:	0404b423          	sd	zero,72(s1)
  p->pid = 0;
    80001c6c:	0204a823          	sw	zero,48(s1)
  p->parent = 0;
    80001c70:	0204bc23          	sd	zero,56(s1)
  p->name[0] = 0;   // limpiar nombre
    80001c74:	14048c23          	sb	zero,344(s1)
  p->chan = 0;      // canal de sleep
    80001c78:	0204b023          	sd	zero,32(s1)
  p->killed = 0;
    80001c7c:	0204a423          	sw	zero,40(s1)
  p->xstate = 0;
    80001c80:	0204a623          	sw	zero,44(s1)
  p->state = UNUSED; // disponible nuevamente
    80001c84:	0004ac23          	sw	zero,24(s1)
}
    80001c88:	60e2                	ld	ra,24(sp)
    80001c8a:	6442                	ld	s0,16(sp)
    80001c8c:	64a2                	ld	s1,8(sp)
    80001c8e:	6105                	addi	sp,sp,32
    80001c90:	8082                	ret

0000000080001c92 <allocproc>:
{
    80001c92:	1101                	addi	sp,sp,-32
    80001c94:	ec06                	sd	ra,24(sp)
    80001c96:	e822                	sd	s0,16(sp)
    80001c98:	e426                	sd	s1,8(sp)
    80001c9a:	e04a                	sd	s2,0(sp)
    80001c9c:	1000                	addi	s0,sp,32
  for(p = proc; p < &proc[NPROC]; p++) {
    80001c9e:	00013497          	auipc	s1,0x13
    80001ca2:	a3248493          	addi	s1,s1,-1486 # 800146d0 <proc>
    80001ca6:	0001a917          	auipc	s2,0x1a
    80001caa:	c2a90913          	addi	s2,s2,-982 # 8001b8d0 <tickslock>
    acquire(&p->lock);
    80001cae:	8526                	mv	a0,s1
    80001cb0:	fffff097          	auipc	ra,0xfffff
    80001cb4:	fa4080e7          	jalr	-92(ra) # 80000c54 <acquire>
    if(p->state == UNUSED) {
    80001cb8:	4c9c                	lw	a5,24(s1)
    80001cba:	cf81                	beqz	a5,80001cd2 <allocproc+0x40>
      release(&p->lock);
    80001cbc:	8526                	mv	a0,s1
    80001cbe:	fffff097          	auipc	ra,0xfffff
    80001cc2:	046080e7          	jalr	70(ra) # 80000d04 <release>
  for(p = proc; p < &proc[NPROC]; p++) {
    80001cc6:	1c848493          	addi	s1,s1,456
    80001cca:	ff2492e3          	bne	s1,s2,80001cae <allocproc+0x1c>
  return 0;
    80001cce:	4481                	li	s1,0
    80001cd0:	a059                	j	80001d56 <allocproc+0xc4>
  p->pid = allocpid();   // asignar un PID
    80001cd2:	00000097          	auipc	ra,0x0
    80001cd6:	e34080e7          	jalr	-460(ra) # 80001b06 <allocpid>
    80001cda:	d888                	sw	a0,48(s1)
  p->state = USED;       // el proceso ahora esta ocupado
    80001cdc:	4785                	li	a5,1
    80001cde:	cc9c                	sw	a5,24(s1)
  p->create_time = ticks;
    80001ce0:	0000a797          	auipc	a5,0xa
    80001ce4:	3507e783          	lwu	a5,848(a5) # 8000c030 <ticks>
    80001ce8:	16f4b823          	sd	a5,368(s1)
  p->run_time = 0;
    80001cec:	1604bc23          	sd	zero,376(s1)
  p->start_time = 0;
    80001cf0:	1804b823          	sd	zero,400(s1)
  p->sleep_time = 0;
    80001cf4:	1804bc23          	sd	zero,408(s1)
  p->total_run_time = 0;
    80001cf8:	1804b023          	sd	zero,384(s1)
  p->exit_time = 0;
    80001cfc:	1a04b023          	sd	zero,416(s1)
  p->n_runs = 0;
    80001d00:	1a04b423          	sd	zero,424(s1)
  p->priority = 60; // prioridad por defecto usada en PBS
    80001d04:	03c00793          	li	a5,60
    80001d08:	1af4b823          	sd	a5,432(s1)
    p->max_mem = 128 * 1024;
    80001d0c:	000207b7          	lui	a5,0x20
    80001d10:	1af4bc23          	sd	a5,440(s1)
  if((p->trapframe = (struct trapframe *)kalloc()) == 0){
    80001d14:	fffff097          	auipc	ra,0xfffff
    80001d18:	e3c080e7          	jalr	-452(ra) # 80000b50 <kalloc>
    80001d1c:	892a                	mv	s2,a0
    80001d1e:	eca8                	sd	a0,88(s1)
    80001d20:	c131                	beqz	a0,80001d64 <allocproc+0xd2>
  p->pagetable = proc_pagetable(p);
    80001d22:	8526                	mv	a0,s1
    80001d24:	00000097          	auipc	ra,0x0
    80001d28:	e28080e7          	jalr	-472(ra) # 80001b4c <proc_pagetable>
    80001d2c:	892a                	mv	s2,a0
    80001d2e:	e8a8                	sd	a0,80(s1)
  if(p->pagetable == 0){
    80001d30:	c531                	beqz	a0,80001d7c <allocproc+0xea>
  memset(&p->context, 0, sizeof(p->context));
    80001d32:	07000613          	li	a2,112
    80001d36:	4581                	li	a1,0
    80001d38:	06048513          	addi	a0,s1,96
    80001d3c:	fffff097          	auipc	ra,0xfffff
    80001d40:	010080e7          	jalr	16(ra) # 80000d4c <memset>
  p->context.ra = (uint64)forkret;     // direccion de retorno para fork()
    80001d44:	00000797          	auipc	a5,0x0
    80001d48:	d7c78793          	addi	a5,a5,-644 # 80001ac0 <forkret>
    80001d4c:	f0bc                	sd	a5,96(s1)
  p->context.sp = p->kstack + PGSIZE;  // stack pointer del kernel
    80001d4e:	60bc                	ld	a5,64(s1)
    80001d50:	6705                	lui	a4,0x1
    80001d52:	97ba                	add	a5,a5,a4
    80001d54:	f4bc                	sd	a5,104(s1)
}
    80001d56:	8526                	mv	a0,s1
    80001d58:	60e2                	ld	ra,24(sp)
    80001d5a:	6442                	ld	s0,16(sp)
    80001d5c:	64a2                	ld	s1,8(sp)
    80001d5e:	6902                	ld	s2,0(sp)
    80001d60:	6105                	addi	sp,sp,32
    80001d62:	8082                	ret
    freeproc(p); // si falla memoria se limpia el proceso
    80001d64:	8526                	mv	a0,s1
    80001d66:	00000097          	auipc	ra,0x0
    80001d6a:	ed4080e7          	jalr	-300(ra) # 80001c3a <freeproc>
    release(&p->lock);
    80001d6e:	8526                	mv	a0,s1
    80001d70:	fffff097          	auipc	ra,0xfffff
    80001d74:	f94080e7          	jalr	-108(ra) # 80000d04 <release>
    return 0;
    80001d78:	84ca                	mv	s1,s2
    80001d7a:	bff1                	j	80001d56 <allocproc+0xc4>
    freeproc(p);
    80001d7c:	8526                	mv	a0,s1
    80001d7e:	00000097          	auipc	ra,0x0
    80001d82:	ebc080e7          	jalr	-324(ra) # 80001c3a <freeproc>
    release(&p->lock);
    80001d86:	8526                	mv	a0,s1
    80001d88:	fffff097          	auipc	ra,0xfffff
    80001d8c:	f7c080e7          	jalr	-132(ra) # 80000d04 <release>
    return 0;
    80001d90:	84ca                	mv	s1,s2
    80001d92:	b7d1                	j	80001d56 <allocproc+0xc4>

0000000080001d94 <userinit>:
{
    80001d94:	1101                	addi	sp,sp,-32
    80001d96:	ec06                	sd	ra,24(sp)
    80001d98:	e822                	sd	s0,16(sp)
    80001d9a:	e426                	sd	s1,8(sp)
    80001d9c:	1000                	addi	s0,sp,32
  p = allocproc(); // nuevo proceso
    80001d9e:	00000097          	auipc	ra,0x0
    80001da2:	ef4080e7          	jalr	-268(ra) # 80001c92 <allocproc>
    80001da6:	84aa                	mv	s1,a0
  initproc = p;
    80001da8:	0000a797          	auipc	a5,0xa
    80001dac:	28a7b023          	sd	a0,640(a5) # 8000c028 <initproc>
  uvminit(p->pagetable, initcode, sizeof(initcode));
    80001db0:	03400613          	li	a2,52
    80001db4:	00009597          	auipc	a1,0x9
    80001db8:	72c58593          	addi	a1,a1,1836 # 8000b4e0 <initcode>
    80001dbc:	6928                	ld	a0,80(a0)
    80001dbe:	fffff097          	auipc	ra,0xfffff
    80001dc2:	630080e7          	jalr	1584(ra) # 800013ee <uvminit>
  p->sz = PGSIZE;
    80001dc6:	6785                	lui	a5,0x1
    80001dc8:	e4bc                	sd	a5,72(s1)
  p->trapframe->epc = 0;
    80001dca:	6cb8                	ld	a4,88(s1)
    80001dcc:	00073c23          	sd	zero,24(a4) # 1018 <_entry-0x7fffefe8>
  p->trapframe->sp = PGSIZE;
    80001dd0:	6cb8                	ld	a4,88(s1)
    80001dd2:	fb1c                	sd	a5,48(a4)
  safestrcpy(p->name, "initcode", sizeof(p->name));
    80001dd4:	4641                	li	a2,16
    80001dd6:	00006597          	auipc	a1,0x6
    80001dda:	40a58593          	addi	a1,a1,1034 # 800081e0 <etext+0x1e0>
    80001dde:	15848513          	addi	a0,s1,344
    80001de2:	fffff097          	auipc	ra,0xfffff
    80001de6:	0c2080e7          	jalr	194(ra) # 80000ea4 <safestrcpy>
  p->cwd = namei("/"); // directorio raiz
    80001dea:	00006517          	auipc	a0,0x6
    80001dee:	40650513          	addi	a0,a0,1030 # 800081f0 <etext+0x1f0>
    80001df2:	00002097          	auipc	ra,0x2
    80001df6:	69c080e7          	jalr	1692(ra) # 8000448e <namei>
    80001dfa:	14a4b823          	sd	a0,336(s1)
  p->state = RUNNABLE; // listo para ejecutar
    80001dfe:	478d                	li	a5,3
    80001e00:	cc9c                	sw	a5,24(s1)
  release(&p->lock);
    80001e02:	8526                	mv	a0,s1
    80001e04:	fffff097          	auipc	ra,0xfffff
    80001e08:	f00080e7          	jalr	-256(ra) # 80000d04 <release>
}
    80001e0c:	60e2                	ld	ra,24(sp)
    80001e0e:	6442                	ld	s0,16(sp)
    80001e10:	64a2                	ld	s1,8(sp)
    80001e12:	6105                	addi	sp,sp,32
    80001e14:	8082                	ret

0000000080001e16 <growproc>:
{
    80001e16:	1101                	addi	sp,sp,-32
    80001e18:	ec06                	sd	ra,24(sp)
    80001e1a:	e822                	sd	s0,16(sp)
    80001e1c:	e426                	sd	s1,8(sp)
    80001e1e:	e04a                	sd	s2,0(sp)
    80001e20:	1000                	addi	s0,sp,32
    80001e22:	84aa                	mv	s1,a0
  struct proc *p = myproc();
    80001e24:	00000097          	auipc	ra,0x0
    80001e28:	c62080e7          	jalr	-926(ra) # 80001a86 <myproc>
    80001e2c:	892a                	mv	s2,a0
  sz = p->sz;
    80001e2e:	652c                	ld	a1,72(a0)
    80001e30:	0005879b          	sext.w	a5,a1
  if(n > 0){
    80001e34:	04905b63          	blez	s1,80001e8a <growproc+0x74>
    uint64 new_sz = sz + n;
    80001e38:	00f4863b          	addw	a2,s1,a5
    80001e3c:	1602                	slli	a2,a2,0x20
    80001e3e:	9201                	srli	a2,a2,0x20
    if(new_sz > p->max_mem){
    80001e40:	1b853783          	ld	a5,440(a0)
    80001e44:	02c7e763          	bltu	a5,a2,80001e72 <growproc+0x5c>
    if((sz = uvmalloc(p->pagetable, sz, new_sz)) == 0){
    80001e48:	1582                	slli	a1,a1,0x20
    80001e4a:	9181                	srli	a1,a1,0x20
    80001e4c:	6928                	ld	a0,80(a0)
    80001e4e:	fffff097          	auipc	ra,0xfffff
    80001e52:	65a080e7          	jalr	1626(ra) # 800014a8 <uvmalloc>
    80001e56:	0005079b          	sext.w	a5,a0
    80001e5a:	cba1                	beqz	a5,80001eaa <growproc+0x94>
  p->sz = sz;
    80001e5c:	1782                	slli	a5,a5,0x20
    80001e5e:	9381                	srli	a5,a5,0x20
    80001e60:	04f93423          	sd	a5,72(s2)
  return 0;
    80001e64:	4501                	li	a0,0
}
    80001e66:	60e2                	ld	ra,24(sp)
    80001e68:	6442                	ld	s0,16(sp)
    80001e6a:	64a2                	ld	s1,8(sp)
    80001e6c:	6902                	ld	s2,0(sp)
    80001e6e:	6105                	addi	sp,sp,32
    80001e70:	8082                	ret
      printf("Proceso %d excedio su limite de memoria (%d bytes)\n",
    80001e72:	863e                	mv	a2,a5
    80001e74:	590c                	lw	a1,48(a0)
    80001e76:	00006517          	auipc	a0,0x6
    80001e7a:	38250513          	addi	a0,a0,898 # 800081f8 <etext+0x1f8>
    80001e7e:	ffffe097          	auipc	ra,0xffffe
    80001e82:	722080e7          	jalr	1826(ra) # 800005a0 <printf>
      return -1;
    80001e86:	557d                	li	a0,-1
    80001e88:	bff9                	j	80001e66 <growproc+0x50>
  else if(n < 0){
    80001e8a:	fc04d9e3          	bgez	s1,80001e5c <growproc+0x46>
    sz = uvmdealloc(p->pagetable, sz, sz + n);
    80001e8e:	00f4863b          	addw	a2,s1,a5
    80001e92:	1602                	slli	a2,a2,0x20
    80001e94:	9201                	srli	a2,a2,0x20
    80001e96:	1582                	slli	a1,a1,0x20
    80001e98:	9181                	srli	a1,a1,0x20
    80001e9a:	6928                	ld	a0,80(a0)
    80001e9c:	fffff097          	auipc	ra,0xfffff
    80001ea0:	5c4080e7          	jalr	1476(ra) # 80001460 <uvmdealloc>
    80001ea4:	0005079b          	sext.w	a5,a0
    80001ea8:	bf55                	j	80001e5c <growproc+0x46>
      return -1;
    80001eaa:	557d                	li	a0,-1
    80001eac:	bf6d                	j	80001e66 <growproc+0x50>

0000000080001eae <fork>:
{
    80001eae:	7139                	addi	sp,sp,-64
    80001eb0:	fc06                	sd	ra,56(sp)
    80001eb2:	f822                	sd	s0,48(sp)
    80001eb4:	f426                	sd	s1,40(sp)
    80001eb6:	e456                	sd	s5,8(sp)
    80001eb8:	0080                	addi	s0,sp,64
  struct proc *p = myproc();
    80001eba:	00000097          	auipc	ra,0x0
    80001ebe:	bcc080e7          	jalr	-1076(ra) # 80001a86 <myproc>
    80001ec2:	8aaa                	mv	s5,a0
  if((np = allocproc()) == 0) // nuevo proceso
    80001ec4:	00000097          	auipc	ra,0x0
    80001ec8:	dce080e7          	jalr	-562(ra) # 80001c92 <allocproc>
    80001ecc:	12050463          	beqz	a0,80001ff4 <fork+0x146>
    80001ed0:	ec4e                	sd	s3,24(sp)
    80001ed2:	89aa                	mv	s3,a0
  np->mask = p->mask; // copiar mascara de syscalls
    80001ed4:	168aa783          	lw	a5,360(s5)
    80001ed8:	16f52423          	sw	a5,360(a0)
  if(uvmcopy(p->pagetable, np->pagetable, p->sz) < 0){
    80001edc:	048ab603          	ld	a2,72(s5)
    80001ee0:	692c                	ld	a1,80(a0)
    80001ee2:	050ab503          	ld	a0,80(s5)
    80001ee6:	fffff097          	auipc	ra,0xfffff
    80001eea:	724080e7          	jalr	1828(ra) # 8000160a <uvmcopy>
    80001eee:	04054863          	bltz	a0,80001f3e <fork+0x90>
    80001ef2:	f04a                	sd	s2,32(sp)
    80001ef4:	e852                	sd	s4,16(sp)
  np->sz = p->sz;
    80001ef6:	048ab783          	ld	a5,72(s5)
    80001efa:	04f9b423          	sd	a5,72(s3)
  *(np->trapframe) = *(p->trapframe);
    80001efe:	058ab683          	ld	a3,88(s5)
    80001f02:	87b6                	mv	a5,a3
    80001f04:	0589b703          	ld	a4,88(s3)
    80001f08:	12068693          	addi	a3,a3,288
    80001f0c:	6388                	ld	a0,0(a5)
    80001f0e:	678c                	ld	a1,8(a5)
    80001f10:	6b90                	ld	a2,16(a5)
    80001f12:	e308                	sd	a0,0(a4)
    80001f14:	e70c                	sd	a1,8(a4)
    80001f16:	eb10                	sd	a2,16(a4)
    80001f18:	6f90                	ld	a2,24(a5)
    80001f1a:	ef10                	sd	a2,24(a4)
    80001f1c:	02078793          	addi	a5,a5,32 # 1020 <_entry-0x7fffefe0>
    80001f20:	02070713          	addi	a4,a4,32
    80001f24:	fed794e3          	bne	a5,a3,80001f0c <fork+0x5e>
  np->trapframe->a0 = 0;
    80001f28:	0589b783          	ld	a5,88(s3)
    80001f2c:	0607b823          	sd	zero,112(a5)
  for(i = 0; i < NOFILE; i++)
    80001f30:	0d0a8493          	addi	s1,s5,208
    80001f34:	0d098913          	addi	s2,s3,208
    80001f38:	150a8a13          	addi	s4,s5,336
    80001f3c:	a015                	j	80001f60 <fork+0xb2>
    freeproc(np);
    80001f3e:	854e                	mv	a0,s3
    80001f40:	00000097          	auipc	ra,0x0
    80001f44:	cfa080e7          	jalr	-774(ra) # 80001c3a <freeproc>
    release(&np->lock);
    80001f48:	854e                	mv	a0,s3
    80001f4a:	fffff097          	auipc	ra,0xfffff
    80001f4e:	dba080e7          	jalr	-582(ra) # 80000d04 <release>
    return -1;
    80001f52:	54fd                	li	s1,-1
    80001f54:	69e2                	ld	s3,24(sp)
    80001f56:	a841                	j	80001fe6 <fork+0x138>
  for(i = 0; i < NOFILE; i++)
    80001f58:	04a1                	addi	s1,s1,8
    80001f5a:	0921                	addi	s2,s2,8
    80001f5c:	01448b63          	beq	s1,s4,80001f72 <fork+0xc4>
    if(p->ofile[i])
    80001f60:	6088                	ld	a0,0(s1)
    80001f62:	d97d                	beqz	a0,80001f58 <fork+0xaa>
      np->ofile[i] = filedup(p->ofile[i]);
    80001f64:	00003097          	auipc	ra,0x3
    80001f68:	bc0080e7          	jalr	-1088(ra) # 80004b24 <filedup>
    80001f6c:	00a93023          	sd	a0,0(s2)
    80001f70:	b7e5                	j	80001f58 <fork+0xaa>
  np->cwd = idup(p->cwd);
    80001f72:	150ab503          	ld	a0,336(s5)
    80001f76:	00002097          	auipc	ra,0x2
    80001f7a:	ce8080e7          	jalr	-792(ra) # 80003c5e <idup>
    80001f7e:	14a9b823          	sd	a0,336(s3)
  safestrcpy(np->name, p->name, sizeof(p->name));
    80001f82:	4641                	li	a2,16
    80001f84:	158a8593          	addi	a1,s5,344
    80001f88:	15898513          	addi	a0,s3,344
    80001f8c:	fffff097          	auipc	ra,0xfffff
    80001f90:	f18080e7          	jalr	-232(ra) # 80000ea4 <safestrcpy>
  pid = np->pid;
    80001f94:	0309a483          	lw	s1,48(s3)
  release(&np->lock);
    80001f98:	854e                	mv	a0,s3
    80001f9a:	fffff097          	auipc	ra,0xfffff
    80001f9e:	d6a080e7          	jalr	-662(ra) # 80000d04 <release>
  acquire(&wait_lock);
    80001fa2:	00012517          	auipc	a0,0x12
    80001fa6:	31650513          	addi	a0,a0,790 # 800142b8 <wait_lock>
    80001faa:	fffff097          	auipc	ra,0xfffff
    80001fae:	caa080e7          	jalr	-854(ra) # 80000c54 <acquire>
  np->parent = p; // asignar padre
    80001fb2:	0359bc23          	sd	s5,56(s3)
  release(&wait_lock);
    80001fb6:	00012517          	auipc	a0,0x12
    80001fba:	30250513          	addi	a0,a0,770 # 800142b8 <wait_lock>
    80001fbe:	fffff097          	auipc	ra,0xfffff
    80001fc2:	d46080e7          	jalr	-698(ra) # 80000d04 <release>
  acquire(&np->lock);
    80001fc6:	854e                	mv	a0,s3
    80001fc8:	fffff097          	auipc	ra,0xfffff
    80001fcc:	c8c080e7          	jalr	-884(ra) # 80000c54 <acquire>
  np->state = RUNNABLE; // listo para ejecutar
    80001fd0:	478d                	li	a5,3
    80001fd2:	00f9ac23          	sw	a5,24(s3)
  release(&np->lock);
    80001fd6:	854e                	mv	a0,s3
    80001fd8:	fffff097          	auipc	ra,0xfffff
    80001fdc:	d2c080e7          	jalr	-724(ra) # 80000d04 <release>
  return pid;
    80001fe0:	7902                	ld	s2,32(sp)
    80001fe2:	69e2                	ld	s3,24(sp)
    80001fe4:	6a42                	ld	s4,16(sp)
}
    80001fe6:	8526                	mv	a0,s1
    80001fe8:	70e2                	ld	ra,56(sp)
    80001fea:	7442                	ld	s0,48(sp)
    80001fec:	74a2                	ld	s1,40(sp)
    80001fee:	6aa2                	ld	s5,8(sp)
    80001ff0:	6121                	addi	sp,sp,64
    80001ff2:	8082                	ret
    return -1;
    80001ff4:	54fd                	li	s1,-1
    80001ff6:	bfc5                	j	80001fe6 <fork+0x138>

0000000080001ff8 <max>:
int max(int a, int b){
    80001ff8:	1141                	addi	sp,sp,-16
    80001ffa:	e406                	sd	ra,8(sp)
    80001ffc:	e022                	sd	s0,0(sp)
    80001ffe:	0800                	addi	s0,sp,16
  if(a > b) return a;
    80002000:	87aa                	mv	a5,a0
    80002002:	00b55363          	bge	a0,a1,80002008 <max+0x10>
    80002006:	87ae                	mv	a5,a1
}
    80002008:	0007851b          	sext.w	a0,a5
    8000200c:	60a2                	ld	ra,8(sp)
    8000200e:	6402                	ld	s0,0(sp)
    80002010:	0141                	addi	sp,sp,16
    80002012:	8082                	ret

0000000080002014 <min>:
int min(int a, int b){
    80002014:	1141                	addi	sp,sp,-16
    80002016:	e406                	sd	ra,8(sp)
    80002018:	e022                	sd	s0,0(sp)
    8000201a:	0800                	addi	s0,sp,16
  if(a < b) return a;
    8000201c:	87aa                	mv	a5,a0
    8000201e:	00a5d363          	bge	a1,a0,80002024 <min+0x10>
    80002022:	87ae                	mv	a5,a1
}
    80002024:	0007851b          	sext.w	a0,a5
    80002028:	60a2                	ld	ra,8(sp)
    8000202a:	6402                	ld	s0,0(sp)
    8000202c:	0141                	addi	sp,sp,16
    8000202e:	8082                	ret

0000000080002030 <scheduler>:
{
    80002030:	7119                	addi	sp,sp,-128
    80002032:	fc86                	sd	ra,120(sp)
    80002034:	f8a2                	sd	s0,112(sp)
    80002036:	f4a6                	sd	s1,104(sp)
    80002038:	f0ca                	sd	s2,96(sp)
    8000203a:	ecce                	sd	s3,88(sp)
    8000203c:	e8d2                	sd	s4,80(sp)
    8000203e:	e4d6                	sd	s5,72(sp)
    80002040:	e0da                	sd	s6,64(sp)
    80002042:	fc5e                	sd	s7,56(sp)
    80002044:	f862                	sd	s8,48(sp)
    80002046:	f466                	sd	s9,40(sp)
    80002048:	f06a                	sd	s10,32(sp)
    8000204a:	ec6e                	sd	s11,24(sp)
    8000204c:	0100                	addi	s0,sp,128
    8000204e:	8792                	mv	a5,tp
  int id = r_tp(); // tp contiene el hartid
    80002050:	2781                	sext.w	a5,a5
  c->proc = 0;
    80002052:	00779693          	slli	a3,a5,0x7
    80002056:	00012717          	auipc	a4,0x12
    8000205a:	24a70713          	addi	a4,a4,586 # 800142a0 <pid_lock>
    8000205e:	9736                	add	a4,a4,a3
    80002060:	02073823          	sd	zero,48(a4)
      swtch(&c->context, &high_priority_proc->context);
    80002064:	00012717          	auipc	a4,0x12
    80002068:	27470713          	addi	a4,a4,628 # 800142d8 <cpus+0x8>
    8000206c:	9736                	add	a4,a4,a3
    8000206e:	f8e43423          	sd	a4,-120(s0)
        nice = 5;
    80002072:	4c15                	li	s8,5
  if(a < b) return a;
    80002074:	06400c93          	li	s9,100
    for(p = proc; p < &proc[NPROC]; p++) {
    80002078:	0001ab97          	auipc	s7,0x1a
    8000207c:	858b8b93          	addi	s7,s7,-1960 # 8001b8d0 <tickslock>
      c->proc = high_priority_proc;
    80002080:	00012d97          	auipc	s11,0x12
    80002084:	220d8d93          	addi	s11,s11,544 # 800142a0 <pid_lock>
    80002088:	9db6                	add	s11,s11,a3
    8000208a:	a8ed                	j	80002184 <scheduler+0x154>
  if(a > b) return a;
    8000208c:	4901                	li	s2,0
    8000208e:	a849                	j	80002120 <scheduler+0xf0>
            dp_check && p->n_runs < high_priority_proc->n_runs;
    80002090:	1a84b683          	ld	a3,424(s1)
    80002094:	1a89b703          	ld	a4,424(s3)
    80002098:	00e6b633          	sltu	a2,a3,a4
            high_priority_proc->n_runs == p->n_runs &&
    8000209c:	4781                	li	a5,0
            dp_check &&
    8000209e:	02e68163          	beq	a3,a4,800020c0 <scheduler+0x90>
           check_1 ||
    800020a2:	8fd1                	or	a5,a5,a2
    800020a4:	c78d                	beqz	a5,800020ce <scheduler+0x9e>
            release(&high_priority_proc->lock);
    800020a6:	854e                	mv	a0,s3
    800020a8:	fffff097          	auipc	ra,0xfffff
    800020ac:	c5c080e7          	jalr	-932(ra) # 80000d04 <release>
    for(p = proc; p < &proc[NPROC]; p++) {
    800020b0:	1c848793          	addi	a5,s1,456
    800020b4:	09778663          	beq	a5,s7,80002140 <scheduler+0x110>
    800020b8:	8a4a                	mv	s4,s2
    800020ba:	89a6                	mv	s3,s1
    800020bc:	84be                	mv	s1,a5
    800020be:	a00d                	j	800020e0 <scheduler+0xb0>
            high_priority_proc->n_runs == p->n_runs &&
    800020c0:	1704b783          	ld	a5,368(s1)
    800020c4:	1709b703          	ld	a4,368(s3)
    800020c8:	00e7b7b3          	sltu	a5,a5,a4
    800020cc:	bfd9                	j	800020a2 <scheduler+0x72>
      release(&p->lock);
    800020ce:	8526                	mv	a0,s1
    800020d0:	fffff097          	auipc	ra,0xfffff
    800020d4:	c34080e7          	jalr	-972(ra) # 80000d04 <release>
    for(p = proc; p < &proc[NPROC]; p++) {
    800020d8:	1c848493          	addi	s1,s1,456
    800020dc:	05748f63          	beq	s1,s7,8000213a <scheduler+0x10a>
      acquire(&p->lock);
    800020e0:	8526                	mv	a0,s1
    800020e2:	fffff097          	auipc	ra,0xfffff
    800020e6:	b72080e7          	jalr	-1166(ra) # 80000c54 <acquire>
      if(p->run_time + p->sleep_time > 0){
    800020ea:	1984b683          	ld	a3,408(s1)
    800020ee:	1784b783          	ld	a5,376(s1)
    800020f2:	97b6                	add	a5,a5,a3
        nice = 5;
    800020f4:	8762                	mv	a4,s8
      if(p->run_time + p->sleep_time > 0){
    800020f6:	cb89                	beqz	a5,80002108 <scheduler+0xd8>
        nice = p->sleep_time * 10;
    800020f8:	0026971b          	slliw	a4,a3,0x2
    800020fc:	9f35                	addw	a4,a4,a3
    800020fe:	0017171b          	slliw	a4,a4,0x1
        nice = nice / (p->sleep_time + p->run_time);
    80002102:	02f75733          	divu	a4,a4,a5
    80002106:	2701                	sext.w	a4,a4
          max(0, min(p->priority - nice + 5, 100));
    80002108:	1b04b783          	ld	a5,432(s1)
    8000210c:	2795                	addiw	a5,a5,5
    8000210e:	9f99                	subw	a5,a5,a4
    80002110:	893e                	mv	s2,a5
  if(a < b) return a;
    80002112:	00fb5363          	bge	s6,a5,80002118 <scheduler+0xe8>
    80002116:	8966                	mv	s2,s9
  if(a > b) return a;
    80002118:	02091793          	slli	a5,s2,0x20
    8000211c:	f607c8e3          	bltz	a5,8000208c <scheduler+0x5c>
    80002120:	2901                	sext.w	s2,s2
      if(p->state == RUNNABLE){
    80002122:	4c9c                	lw	a5,24(s1)
    80002124:	fb5795e3          	bne	a5,s5,800020ce <scheduler+0x9e>
            dp_check && p->n_runs < high_priority_proc->n_runs;
    80002128:	f74904e3          	beq	s2,s4,80002090 <scheduler+0x60>
        if(high_priority_proc == 0 ||
    8000212c:	00098463          	beqz	s3,80002134 <scheduler+0x104>
    80002130:	f92a5fe3          	bge	s4,s2,800020ce <scheduler+0x9e>
          if(high_priority_proc != 0)
    80002134:	f6098ee3          	beqz	s3,800020b0 <scheduler+0x80>
    80002138:	b7bd                	j	800020a6 <scheduler+0x76>
    if(high_priority_proc != 0){
    8000213a:	04098a63          	beqz	s3,8000218e <scheduler+0x15e>
    8000213e:	84ce                	mv	s1,s3
      high_priority_proc->state = RUNNING;
    80002140:	4791                	li	a5,4
    80002142:	cc9c                	sw	a5,24(s1)
      high_priority_proc->start_time = ticks;
    80002144:	0000a797          	auipc	a5,0xa
    80002148:	eec7e783          	lwu	a5,-276(a5) # 8000c030 <ticks>
    8000214c:	18f4b823          	sd	a5,400(s1)
      high_priority_proc->run_time = 0;
    80002150:	1604bc23          	sd	zero,376(s1)
      high_priority_proc->sleep_time = 0;
    80002154:	1804bc23          	sd	zero,408(s1)
      high_priority_proc->n_runs += 1;
    80002158:	1a84b783          	ld	a5,424(s1)
    8000215c:	0785                	addi	a5,a5,1
    8000215e:	1af4b423          	sd	a5,424(s1)
      c->proc = high_priority_proc;
    80002162:	029db823          	sd	s1,48(s11)
      swtch(&c->context, &high_priority_proc->context);
    80002166:	06048593          	addi	a1,s1,96
    8000216a:	f8843503          	ld	a0,-120(s0)
    8000216e:	00001097          	auipc	ra,0x1
    80002172:	8d2080e7          	jalr	-1838(ra) # 80002a40 <swtch>
      c->proc = 0;
    80002176:	020db823          	sd	zero,48(s11)
      release(&high_priority_proc->lock);
    8000217a:	8526                	mv	a0,s1
    8000217c:	fffff097          	auipc	ra,0xfffff
    80002180:	b88080e7          	jalr	-1144(ra) # 80000d04 <release>
    int dynamic_priority = 101;
    80002184:	06500d13          	li	s10,101
  if(a < b) return a;
    80002188:	06400b13          	li	s6,100
      if(p->state == RUNNABLE){
    8000218c:	4a8d                	li	s5,3
  asm volatile("csrr %0, sstatus" : "=r" (x) );
    8000218e:	100027f3          	csrr	a5,sstatus
  w_sstatus(r_sstatus() | SSTATUS_SIE);
    80002192:	0027e793          	ori	a5,a5,2
  asm volatile("csrw sstatus, %0" : : "r" (x));
    80002196:	10079073          	csrw	sstatus,a5
    int dynamic_priority = 101;
    8000219a:	8a6a                	mv	s4,s10
    struct proc* high_priority_proc = 0;
    8000219c:	4981                	li	s3,0
    for(p = proc; p < &proc[NPROC]; p++) {
    8000219e:	00012497          	auipc	s1,0x12
    800021a2:	53248493          	addi	s1,s1,1330 # 800146d0 <proc>
    800021a6:	bf2d                	j	800020e0 <scheduler+0xb0>

00000000800021a8 <sched>:
{
    800021a8:	7179                	addi	sp,sp,-48
    800021aa:	f406                	sd	ra,40(sp)
    800021ac:	f022                	sd	s0,32(sp)
    800021ae:	ec26                	sd	s1,24(sp)
    800021b0:	e84a                	sd	s2,16(sp)
    800021b2:	e44e                	sd	s3,8(sp)
    800021b4:	1800                	addi	s0,sp,48
  struct proc *p = myproc();
    800021b6:	00000097          	auipc	ra,0x0
    800021ba:	8d0080e7          	jalr	-1840(ra) # 80001a86 <myproc>
    800021be:	84aa                	mv	s1,a0
  if(!holding(&p->lock))
    800021c0:	fffff097          	auipc	ra,0xfffff
    800021c4:	a14080e7          	jalr	-1516(ra) # 80000bd4 <holding>
    800021c8:	cd25                	beqz	a0,80002240 <sched+0x98>
  asm volatile("mv %0, tp" : "=r" (x) );
    800021ca:	8792                	mv	a5,tp
  if(mycpu()->noff != 1)
    800021cc:	2781                	sext.w	a5,a5
    800021ce:	079e                	slli	a5,a5,0x7
    800021d0:	00012717          	auipc	a4,0x12
    800021d4:	0d070713          	addi	a4,a4,208 # 800142a0 <pid_lock>
    800021d8:	97ba                	add	a5,a5,a4
    800021da:	0a87a703          	lw	a4,168(a5)
    800021de:	4785                	li	a5,1
    800021e0:	06f71863          	bne	a4,a5,80002250 <sched+0xa8>
  if(p->state == RUNNING)
    800021e4:	4c98                	lw	a4,24(s1)
    800021e6:	4791                	li	a5,4
    800021e8:	06f70c63          	beq	a4,a5,80002260 <sched+0xb8>
  asm volatile("csrr %0, sstatus" : "=r" (x) );
    800021ec:	100027f3          	csrr	a5,sstatus
  return (x & SSTATUS_SIE) != 0;
    800021f0:	8b89                	andi	a5,a5,2
  if(intr_get())
    800021f2:	efbd                	bnez	a5,80002270 <sched+0xc8>
  asm volatile("mv %0, tp" : "=r" (x) );
    800021f4:	8792                	mv	a5,tp
  intena = mycpu()->intena;
    800021f6:	00012917          	auipc	s2,0x12
    800021fa:	0aa90913          	addi	s2,s2,170 # 800142a0 <pid_lock>
    800021fe:	2781                	sext.w	a5,a5
    80002200:	079e                	slli	a5,a5,0x7
    80002202:	97ca                	add	a5,a5,s2
    80002204:	0ac7a983          	lw	s3,172(a5)
    80002208:	8792                	mv	a5,tp
  swtch(&p->context, &mycpu()->context);
    8000220a:	2781                	sext.w	a5,a5
    8000220c:	079e                	slli	a5,a5,0x7
    8000220e:	07a1                	addi	a5,a5,8
    80002210:	00012597          	auipc	a1,0x12
    80002214:	0c058593          	addi	a1,a1,192 # 800142d0 <cpus>
    80002218:	95be                	add	a1,a1,a5
    8000221a:	06048513          	addi	a0,s1,96
    8000221e:	00001097          	auipc	ra,0x1
    80002222:	822080e7          	jalr	-2014(ra) # 80002a40 <swtch>
    80002226:	8792                	mv	a5,tp
  mycpu()->intena = intena;
    80002228:	2781                	sext.w	a5,a5
    8000222a:	079e                	slli	a5,a5,0x7
    8000222c:	993e                	add	s2,s2,a5
    8000222e:	0b392623          	sw	s3,172(s2)
}
    80002232:	70a2                	ld	ra,40(sp)
    80002234:	7402                	ld	s0,32(sp)
    80002236:	64e2                	ld	s1,24(sp)
    80002238:	6942                	ld	s2,16(sp)
    8000223a:	69a2                	ld	s3,8(sp)
    8000223c:	6145                	addi	sp,sp,48
    8000223e:	8082                	ret
    panic("sched p->lock");
    80002240:	00006517          	auipc	a0,0x6
    80002244:	ff050513          	addi	a0,a0,-16 # 80008230 <etext+0x230>
    80002248:	ffffe097          	auipc	ra,0xffffe
    8000224c:	30e080e7          	jalr	782(ra) # 80000556 <panic>
    panic("sched locks");
    80002250:	00006517          	auipc	a0,0x6
    80002254:	ff050513          	addi	a0,a0,-16 # 80008240 <etext+0x240>
    80002258:	ffffe097          	auipc	ra,0xffffe
    8000225c:	2fe080e7          	jalr	766(ra) # 80000556 <panic>
    panic("sched running");
    80002260:	00006517          	auipc	a0,0x6
    80002264:	ff050513          	addi	a0,a0,-16 # 80008250 <etext+0x250>
    80002268:	ffffe097          	auipc	ra,0xffffe
    8000226c:	2ee080e7          	jalr	750(ra) # 80000556 <panic>
    panic("sched interruptible");
    80002270:	00006517          	auipc	a0,0x6
    80002274:	ff050513          	addi	a0,a0,-16 # 80008260 <etext+0x260>
    80002278:	ffffe097          	auipc	ra,0xffffe
    8000227c:	2de080e7          	jalr	734(ra) # 80000556 <panic>

0000000080002280 <yield>:
{
    80002280:	1101                	addi	sp,sp,-32
    80002282:	ec06                	sd	ra,24(sp)
    80002284:	e822                	sd	s0,16(sp)
    80002286:	e426                	sd	s1,8(sp)
    80002288:	1000                	addi	s0,sp,32
  struct proc *p = myproc();
    8000228a:	fffff097          	auipc	ra,0xfffff
    8000228e:	7fc080e7          	jalr	2044(ra) # 80001a86 <myproc>
    80002292:	84aa                	mv	s1,a0
  acquire(&p->lock);
    80002294:	fffff097          	auipc	ra,0xfffff
    80002298:	9c0080e7          	jalr	-1600(ra) # 80000c54 <acquire>
  p->state = RUNNABLE;
    8000229c:	478d                	li	a5,3
    8000229e:	cc9c                	sw	a5,24(s1)
  sched();
    800022a0:	00000097          	auipc	ra,0x0
    800022a4:	f08080e7          	jalr	-248(ra) # 800021a8 <sched>
  release(&p->lock);
    800022a8:	8526                	mv	a0,s1
    800022aa:	fffff097          	auipc	ra,0xfffff
    800022ae:	a5a080e7          	jalr	-1446(ra) # 80000d04 <release>
}
    800022b2:	60e2                	ld	ra,24(sp)
    800022b4:	6442                	ld	s0,16(sp)
    800022b6:	64a2                	ld	s1,8(sp)
    800022b8:	6105                	addi	sp,sp,32
    800022ba:	8082                	ret

00000000800022bc <sleep>:

// Pone un proceso a dormir
void
sleep(void *chan, struct spinlock *lk)
{
    800022bc:	7179                	addi	sp,sp,-48
    800022be:	f406                	sd	ra,40(sp)
    800022c0:	f022                	sd	s0,32(sp)
    800022c2:	ec26                	sd	s1,24(sp)
    800022c4:	e84a                	sd	s2,16(sp)
    800022c6:	e44e                	sd	s3,8(sp)
    800022c8:	1800                	addi	s0,sp,48
    800022ca:	89aa                	mv	s3,a0
    800022cc:	892e                	mv	s2,a1
  struct proc *p = myproc();
    800022ce:	fffff097          	auipc	ra,0xfffff
    800022d2:	7b8080e7          	jalr	1976(ra) # 80001a86 <myproc>
    800022d6:	84aa                	mv	s1,a0
  
  acquire(&p->lock);
    800022d8:	fffff097          	auipc	ra,0xfffff
    800022dc:	97c080e7          	jalr	-1668(ra) # 80000c54 <acquire>
  release(lk);
    800022e0:	854a                	mv	a0,s2
    800022e2:	fffff097          	auipc	ra,0xfffff
    800022e6:	a22080e7          	jalr	-1502(ra) # 80000d04 <release>

  p->chan = chan;
    800022ea:	0334b023          	sd	s3,32(s1)
  p->state = SLEEPING;
    800022ee:	4789                	li	a5,2
    800022f0:	cc9c                	sw	a5,24(s1)

  sched();
    800022f2:	00000097          	auipc	ra,0x0
    800022f6:	eb6080e7          	jalr	-330(ra) # 800021a8 <sched>

  p->chan = 0;
    800022fa:	0204b023          	sd	zero,32(s1)

  release(&p->lock);
    800022fe:	8526                	mv	a0,s1
    80002300:	fffff097          	auipc	ra,0xfffff
    80002304:	a04080e7          	jalr	-1532(ra) # 80000d04 <release>
  acquire(lk);
    80002308:	854a                	mv	a0,s2
    8000230a:	fffff097          	auipc	ra,0xfffff
    8000230e:	94a080e7          	jalr	-1718(ra) # 80000c54 <acquire>
}
    80002312:	70a2                	ld	ra,40(sp)
    80002314:	7402                	ld	s0,32(sp)
    80002316:	64e2                	ld	s1,24(sp)
    80002318:	6942                	ld	s2,16(sp)
    8000231a:	69a2                	ld	s3,8(sp)
    8000231c:	6145                	addi	sp,sp,48
    8000231e:	8082                	ret

0000000080002320 <wait>:
{
    80002320:	715d                	addi	sp,sp,-80
    80002322:	e486                	sd	ra,72(sp)
    80002324:	e0a2                	sd	s0,64(sp)
    80002326:	fc26                	sd	s1,56(sp)
    80002328:	f84a                	sd	s2,48(sp)
    8000232a:	f44e                	sd	s3,40(sp)
    8000232c:	f052                	sd	s4,32(sp)
    8000232e:	ec56                	sd	s5,24(sp)
    80002330:	e85a                	sd	s6,16(sp)
    80002332:	e45e                	sd	s7,8(sp)
    80002334:	0880                	addi	s0,sp,80
    80002336:	8baa                	mv	s7,a0
  struct proc *p = myproc();
    80002338:	fffff097          	auipc	ra,0xfffff
    8000233c:	74e080e7          	jalr	1870(ra) # 80001a86 <myproc>
    80002340:	892a                	mv	s2,a0
  acquire(&wait_lock);
    80002342:	00012517          	auipc	a0,0x12
    80002346:	f7650513          	addi	a0,a0,-138 # 800142b8 <wait_lock>
    8000234a:	fffff097          	auipc	ra,0xfffff
    8000234e:	90a080e7          	jalr	-1782(ra) # 80000c54 <acquire>
        if(np->state == ZOMBIE){
    80002352:	4a15                	li	s4,5
        havekids = 1;
    80002354:	4a85                	li	s5,1
    for(np = proc; np < &proc[NPROC]; np++){
    80002356:	00019997          	auipc	s3,0x19
    8000235a:	57a98993          	addi	s3,s3,1402 # 8001b8d0 <tickslock>
    sleep(p, &wait_lock);
    8000235e:	00012b17          	auipc	s6,0x12
    80002362:	f5ab0b13          	addi	s6,s6,-166 # 800142b8 <wait_lock>
    80002366:	a875                	j	80002422 <wait+0x102>
          pid = np->pid;
    80002368:	0304a983          	lw	s3,48(s1)
          if(addr != 0 &&
    8000236c:	000b8e63          	beqz	s7,80002388 <wait+0x68>
             copyout(p->pagetable, addr,
    80002370:	4691                	li	a3,4
    80002372:	02c48613          	addi	a2,s1,44
    80002376:	85de                	mv	a1,s7
    80002378:	05093503          	ld	a0,80(s2)
    8000237c:	fffff097          	auipc	ra,0xfffff
    80002380:	38e080e7          	jalr	910(ra) # 8000170a <copyout>
          if(addr != 0 &&
    80002384:	04054063          	bltz	a0,800023c4 <wait+0xa4>
          freeproc(np); // liberar proceso
    80002388:	8526                	mv	a0,s1
    8000238a:	00000097          	auipc	ra,0x0
    8000238e:	8b0080e7          	jalr	-1872(ra) # 80001c3a <freeproc>
          release(&np->lock);
    80002392:	8526                	mv	a0,s1
    80002394:	fffff097          	auipc	ra,0xfffff
    80002398:	970080e7          	jalr	-1680(ra) # 80000d04 <release>
          release(&wait_lock);
    8000239c:	00012517          	auipc	a0,0x12
    800023a0:	f1c50513          	addi	a0,a0,-228 # 800142b8 <wait_lock>
    800023a4:	fffff097          	auipc	ra,0xfffff
    800023a8:	960080e7          	jalr	-1696(ra) # 80000d04 <release>
}
    800023ac:	854e                	mv	a0,s3
    800023ae:	60a6                	ld	ra,72(sp)
    800023b0:	6406                	ld	s0,64(sp)
    800023b2:	74e2                	ld	s1,56(sp)
    800023b4:	7942                	ld	s2,48(sp)
    800023b6:	79a2                	ld	s3,40(sp)
    800023b8:	7a02                	ld	s4,32(sp)
    800023ba:	6ae2                	ld	s5,24(sp)
    800023bc:	6b42                	ld	s6,16(sp)
    800023be:	6ba2                	ld	s7,8(sp)
    800023c0:	6161                	addi	sp,sp,80
    800023c2:	8082                	ret
            release(&np->lock);
    800023c4:	8526                	mv	a0,s1
    800023c6:	fffff097          	auipc	ra,0xfffff
    800023ca:	93e080e7          	jalr	-1730(ra) # 80000d04 <release>
            release(&wait_lock);
    800023ce:	00012517          	auipc	a0,0x12
    800023d2:	eea50513          	addi	a0,a0,-278 # 800142b8 <wait_lock>
    800023d6:	fffff097          	auipc	ra,0xfffff
    800023da:	92e080e7          	jalr	-1746(ra) # 80000d04 <release>
            return -1;
    800023de:	59fd                	li	s3,-1
    800023e0:	b7f1                	j	800023ac <wait+0x8c>
    for(np = proc; np < &proc[NPROC]; np++){
    800023e2:	1c848493          	addi	s1,s1,456
    800023e6:	03348463          	beq	s1,s3,8000240e <wait+0xee>
      if(np->parent == p){
    800023ea:	7c9c                	ld	a5,56(s1)
    800023ec:	ff279be3          	bne	a5,s2,800023e2 <wait+0xc2>
        acquire(&np->lock);
    800023f0:	8526                	mv	a0,s1
    800023f2:	fffff097          	auipc	ra,0xfffff
    800023f6:	862080e7          	jalr	-1950(ra) # 80000c54 <acquire>
        if(np->state == ZOMBIE){
    800023fa:	4c9c                	lw	a5,24(s1)
    800023fc:	f74786e3          	beq	a5,s4,80002368 <wait+0x48>
        release(&np->lock);
    80002400:	8526                	mv	a0,s1
    80002402:	fffff097          	auipc	ra,0xfffff
    80002406:	902080e7          	jalr	-1790(ra) # 80000d04 <release>
        havekids = 1;
    8000240a:	8756                	mv	a4,s5
    8000240c:	bfd9                	j	800023e2 <wait+0xc2>
    if(!havekids || p->killed){
    8000240e:	c305                	beqz	a4,8000242e <wait+0x10e>
    80002410:	02892783          	lw	a5,40(s2)
    80002414:	ef89                	bnez	a5,8000242e <wait+0x10e>
    sleep(p, &wait_lock);
    80002416:	85da                	mv	a1,s6
    80002418:	854a                	mv	a0,s2
    8000241a:	00000097          	auipc	ra,0x0
    8000241e:	ea2080e7          	jalr	-350(ra) # 800022bc <sleep>
    havekids = 0;
    80002422:	4701                	li	a4,0
    for(np = proc; np < &proc[NPROC]; np++){
    80002424:	00012497          	auipc	s1,0x12
    80002428:	2ac48493          	addi	s1,s1,684 # 800146d0 <proc>
    8000242c:	bf7d                	j	800023ea <wait+0xca>
      release(&wait_lock);
    8000242e:	00012517          	auipc	a0,0x12
    80002432:	e8a50513          	addi	a0,a0,-374 # 800142b8 <wait_lock>
    80002436:	fffff097          	auipc	ra,0xfffff
    8000243a:	8ce080e7          	jalr	-1842(ra) # 80000d04 <release>
      return -1;
    8000243e:	59fd                	li	s3,-1
    80002440:	b7b5                	j	800023ac <wait+0x8c>

0000000080002442 <wakeup>:

// Despertar procesos dormidos
void
wakeup(void *chan)
{
    80002442:	7139                	addi	sp,sp,-64
    80002444:	fc06                	sd	ra,56(sp)
    80002446:	f822                	sd	s0,48(sp)
    80002448:	f426                	sd	s1,40(sp)
    8000244a:	f04a                	sd	s2,32(sp)
    8000244c:	ec4e                	sd	s3,24(sp)
    8000244e:	e852                	sd	s4,16(sp)
    80002450:	e456                	sd	s5,8(sp)
    80002452:	0080                	addi	s0,sp,64
    80002454:	8a2a                	mv	s4,a0
  struct proc *p;

  for(p = proc; p < &proc[NPROC]; p++) {
    80002456:	00012497          	auipc	s1,0x12
    8000245a:	27a48493          	addi	s1,s1,634 # 800146d0 <proc>
    if(p != myproc()){
      acquire(&p->lock);

      if(p->state == SLEEPING && p->chan == chan)
    8000245e:	4989                	li	s3,2
        p->state = RUNNABLE;
    80002460:	4a8d                	li	s5,3
  for(p = proc; p < &proc[NPROC]; p++) {
    80002462:	00019917          	auipc	s2,0x19
    80002466:	46e90913          	addi	s2,s2,1134 # 8001b8d0 <tickslock>
    8000246a:	a811                	j	8000247e <wakeup+0x3c>

      release(&p->lock);
    8000246c:	8526                	mv	a0,s1
    8000246e:	fffff097          	auipc	ra,0xfffff
    80002472:	896080e7          	jalr	-1898(ra) # 80000d04 <release>
  for(p = proc; p < &proc[NPROC]; p++) {
    80002476:	1c848493          	addi	s1,s1,456
    8000247a:	03248663          	beq	s1,s2,800024a6 <wakeup+0x64>
    if(p != myproc()){
    8000247e:	fffff097          	auipc	ra,0xfffff
    80002482:	608080e7          	jalr	1544(ra) # 80001a86 <myproc>
    80002486:	fe9508e3          	beq	a0,s1,80002476 <wakeup+0x34>
      acquire(&p->lock);
    8000248a:	8526                	mv	a0,s1
    8000248c:	ffffe097          	auipc	ra,0xffffe
    80002490:	7c8080e7          	jalr	1992(ra) # 80000c54 <acquire>
      if(p->state == SLEEPING && p->chan == chan)
    80002494:	4c9c                	lw	a5,24(s1)
    80002496:	fd379be3          	bne	a5,s3,8000246c <wakeup+0x2a>
    8000249a:	709c                	ld	a5,32(s1)
    8000249c:	fd4798e3          	bne	a5,s4,8000246c <wakeup+0x2a>
        p->state = RUNNABLE;
    800024a0:	0154ac23          	sw	s5,24(s1)
    800024a4:	b7e1                	j	8000246c <wakeup+0x2a>
    }
  }
}
    800024a6:	70e2                	ld	ra,56(sp)
    800024a8:	7442                	ld	s0,48(sp)
    800024aa:	74a2                	ld	s1,40(sp)
    800024ac:	7902                	ld	s2,32(sp)
    800024ae:	69e2                	ld	s3,24(sp)
    800024b0:	6a42                	ld	s4,16(sp)
    800024b2:	6aa2                	ld	s5,8(sp)
    800024b4:	6121                	addi	sp,sp,64
    800024b6:	8082                	ret

00000000800024b8 <reparent>:
{
    800024b8:	7179                	addi	sp,sp,-48
    800024ba:	f406                	sd	ra,40(sp)
    800024bc:	f022                	sd	s0,32(sp)
    800024be:	ec26                	sd	s1,24(sp)
    800024c0:	e84a                	sd	s2,16(sp)
    800024c2:	e44e                	sd	s3,8(sp)
    800024c4:	e052                	sd	s4,0(sp)
    800024c6:	1800                	addi	s0,sp,48
    800024c8:	892a                	mv	s2,a0
  for(pp = proc; pp < &proc[NPROC]; pp++){
    800024ca:	00012497          	auipc	s1,0x12
    800024ce:	20648493          	addi	s1,s1,518 # 800146d0 <proc>
      pp->parent = initproc;
    800024d2:	0000aa17          	auipc	s4,0xa
    800024d6:	b56a0a13          	addi	s4,s4,-1194 # 8000c028 <initproc>
  for(pp = proc; pp < &proc[NPROC]; pp++){
    800024da:	00019997          	auipc	s3,0x19
    800024de:	3f698993          	addi	s3,s3,1014 # 8001b8d0 <tickslock>
    800024e2:	a029                	j	800024ec <reparent+0x34>
    800024e4:	1c848493          	addi	s1,s1,456
    800024e8:	01348d63          	beq	s1,s3,80002502 <reparent+0x4a>
    if(pp->parent == p){
    800024ec:	7c9c                	ld	a5,56(s1)
    800024ee:	ff279be3          	bne	a5,s2,800024e4 <reparent+0x2c>
      pp->parent = initproc;
    800024f2:	000a3503          	ld	a0,0(s4)
    800024f6:	fc88                	sd	a0,56(s1)
      wakeup(initproc);
    800024f8:	00000097          	auipc	ra,0x0
    800024fc:	f4a080e7          	jalr	-182(ra) # 80002442 <wakeup>
    80002500:	b7d5                	j	800024e4 <reparent+0x2c>
}
    80002502:	70a2                	ld	ra,40(sp)
    80002504:	7402                	ld	s0,32(sp)
    80002506:	64e2                	ld	s1,24(sp)
    80002508:	6942                	ld	s2,16(sp)
    8000250a:	69a2                	ld	s3,8(sp)
    8000250c:	6a02                	ld	s4,0(sp)
    8000250e:	6145                	addi	sp,sp,48
    80002510:	8082                	ret

0000000080002512 <exit>:
{
    80002512:	7179                	addi	sp,sp,-48
    80002514:	f406                	sd	ra,40(sp)
    80002516:	f022                	sd	s0,32(sp)
    80002518:	ec26                	sd	s1,24(sp)
    8000251a:	e84a                	sd	s2,16(sp)
    8000251c:	e44e                	sd	s3,8(sp)
    8000251e:	e052                	sd	s4,0(sp)
    80002520:	1800                	addi	s0,sp,48
    80002522:	8a2a                	mv	s4,a0
  struct proc *p = myproc();
    80002524:	fffff097          	auipc	ra,0xfffff
    80002528:	562080e7          	jalr	1378(ra) # 80001a86 <myproc>
    8000252c:	89aa                	mv	s3,a0
  if(p == initproc)
    8000252e:	0000a797          	auipc	a5,0xa
    80002532:	afa7b783          	ld	a5,-1286(a5) # 8000c028 <initproc>
    80002536:	0d050493          	addi	s1,a0,208
    8000253a:	15050913          	addi	s2,a0,336
    8000253e:	00a79d63          	bne	a5,a0,80002558 <exit+0x46>
    panic("init exiting");
    80002542:	00006517          	auipc	a0,0x6
    80002546:	d3650513          	addi	a0,a0,-714 # 80008278 <etext+0x278>
    8000254a:	ffffe097          	auipc	ra,0xffffe
    8000254e:	00c080e7          	jalr	12(ra) # 80000556 <panic>
  for(int fd = 0; fd < NOFILE; fd++){
    80002552:	04a1                	addi	s1,s1,8
    80002554:	01248b63          	beq	s1,s2,8000256a <exit+0x58>
    if(p->ofile[fd]){
    80002558:	6088                	ld	a0,0(s1)
    8000255a:	dd65                	beqz	a0,80002552 <exit+0x40>
      fileclose(f);
    8000255c:	00002097          	auipc	ra,0x2
    80002560:	61a080e7          	jalr	1562(ra) # 80004b76 <fileclose>
      p->ofile[fd] = 0;
    80002564:	0004b023          	sd	zero,0(s1)
    80002568:	b7ed                	j	80002552 <exit+0x40>
  begin_op();
    8000256a:	00002097          	auipc	ra,0x2
    8000256e:	12a080e7          	jalr	298(ra) # 80004694 <begin_op>
  iput(p->cwd);
    80002572:	1509b503          	ld	a0,336(s3)
    80002576:	00002097          	auipc	ra,0x2
    8000257a:	8e4080e7          	jalr	-1820(ra) # 80003e5a <iput>
  end_op();
    8000257e:	00002097          	auipc	ra,0x2
    80002582:	196080e7          	jalr	406(ra) # 80004714 <end_op>
  p->cwd = 0;
    80002586:	1409b823          	sd	zero,336(s3)
  acquire(&wait_lock);
    8000258a:	00012517          	auipc	a0,0x12
    8000258e:	d2e50513          	addi	a0,a0,-722 # 800142b8 <wait_lock>
    80002592:	ffffe097          	auipc	ra,0xffffe
    80002596:	6c2080e7          	jalr	1730(ra) # 80000c54 <acquire>
  reparent(p);
    8000259a:	854e                	mv	a0,s3
    8000259c:	00000097          	auipc	ra,0x0
    800025a0:	f1c080e7          	jalr	-228(ra) # 800024b8 <reparent>
  wakeup(p->parent);
    800025a4:	0389b503          	ld	a0,56(s3)
    800025a8:	00000097          	auipc	ra,0x0
    800025ac:	e9a080e7          	jalr	-358(ra) # 80002442 <wakeup>
  acquire(&p->lock);
    800025b0:	854e                	mv	a0,s3
    800025b2:	ffffe097          	auipc	ra,0xffffe
    800025b6:	6a2080e7          	jalr	1698(ra) # 80000c54 <acquire>
  p->xstate = status;  // codigo de salida
    800025ba:	0349a623          	sw	s4,44(s3)
  p->state = ZOMBIE;   // proceso muerto
    800025be:	4795                	li	a5,5
    800025c0:	00f9ac23          	sw	a5,24(s3)
  p->exit_time = ticks;// registrar tiempo de salida
    800025c4:	0000a797          	auipc	a5,0xa
    800025c8:	a6c7e783          	lwu	a5,-1428(a5) # 8000c030 <ticks>
    800025cc:	1af9b023          	sd	a5,416(s3)
  release(&wait_lock);
    800025d0:	00012517          	auipc	a0,0x12
    800025d4:	ce850513          	addi	a0,a0,-792 # 800142b8 <wait_lock>
    800025d8:	ffffe097          	auipc	ra,0xffffe
    800025dc:	72c080e7          	jalr	1836(ra) # 80000d04 <release>
  sched(); // ceder CPU
    800025e0:	00000097          	auipc	ra,0x0
    800025e4:	bc8080e7          	jalr	-1080(ra) # 800021a8 <sched>
  panic("zombie exit");
    800025e8:	00006517          	auipc	a0,0x6
    800025ec:	ca050513          	addi	a0,a0,-864 # 80008288 <etext+0x288>
    800025f0:	ffffe097          	auipc	ra,0xffffe
    800025f4:	f66080e7          	jalr	-154(ra) # 80000556 <panic>

00000000800025f8 <kill>:

// Mata un proceso por pid
int
kill(int pid)
{
    800025f8:	7179                	addi	sp,sp,-48
    800025fa:	f406                	sd	ra,40(sp)
    800025fc:	f022                	sd	s0,32(sp)
    800025fe:	ec26                	sd	s1,24(sp)
    80002600:	e84a                	sd	s2,16(sp)
    80002602:	e44e                	sd	s3,8(sp)
    80002604:	1800                	addi	s0,sp,48
    80002606:	892a                	mv	s2,a0
  struct proc *p;

  for(p = proc; p < &proc[NPROC]; p++){
    80002608:	00012497          	auipc	s1,0x12
    8000260c:	0c848493          	addi	s1,s1,200 # 800146d0 <proc>
    80002610:	00019997          	auipc	s3,0x19
    80002614:	2c098993          	addi	s3,s3,704 # 8001b8d0 <tickslock>
    acquire(&p->lock);
    80002618:	8526                	mv	a0,s1
    8000261a:	ffffe097          	auipc	ra,0xffffe
    8000261e:	63a080e7          	jalr	1594(ra) # 80000c54 <acquire>

    if(p->pid == pid){
    80002622:	589c                	lw	a5,48(s1)
    80002624:	01278d63          	beq	a5,s2,8000263e <kill+0x46>

      release(&p->lock);
      return 0;
    }

    release(&p->lock);
    80002628:	8526                	mv	a0,s1
    8000262a:	ffffe097          	auipc	ra,0xffffe
    8000262e:	6da080e7          	jalr	1754(ra) # 80000d04 <release>
  for(p = proc; p < &proc[NPROC]; p++){
    80002632:	1c848493          	addi	s1,s1,456
    80002636:	ff3491e3          	bne	s1,s3,80002618 <kill+0x20>
  }

  return -1;
    8000263a:	557d                	li	a0,-1
    8000263c:	a829                	j	80002656 <kill+0x5e>
      p->killed = 1;
    8000263e:	4785                	li	a5,1
    80002640:	d49c                	sw	a5,40(s1)
      if(p->state == SLEEPING)
    80002642:	4c98                	lw	a4,24(s1)
    80002644:	4789                	li	a5,2
    80002646:	00f70f63          	beq	a4,a5,80002664 <kill+0x6c>
      release(&p->lock);
    8000264a:	8526                	mv	a0,s1
    8000264c:	ffffe097          	auipc	ra,0xffffe
    80002650:	6b8080e7          	jalr	1720(ra) # 80000d04 <release>
      return 0;
    80002654:	4501                	li	a0,0
}
    80002656:	70a2                	ld	ra,40(sp)
    80002658:	7402                	ld	s0,32(sp)
    8000265a:	64e2                	ld	s1,24(sp)
    8000265c:	6942                	ld	s2,16(sp)
    8000265e:	69a2                	ld	s3,8(sp)
    80002660:	6145                	addi	sp,sp,48
    80002662:	8082                	ret
        p->state = RUNNABLE;
    80002664:	478d                	li	a5,3
    80002666:	cc9c                	sw	a5,24(s1)
    80002668:	b7cd                	j	8000264a <kill+0x52>

000000008000266a <either_copyout>:

// Copia datos a espacio de usuario o kernel
int
either_copyout(int user_dst, uint64 dst, void *src, uint64 len)
{
    8000266a:	7179                	addi	sp,sp,-48
    8000266c:	f406                	sd	ra,40(sp)
    8000266e:	f022                	sd	s0,32(sp)
    80002670:	ec26                	sd	s1,24(sp)
    80002672:	e84a                	sd	s2,16(sp)
    80002674:	e44e                	sd	s3,8(sp)
    80002676:	e052                	sd	s4,0(sp)
    80002678:	1800                	addi	s0,sp,48
    8000267a:	84aa                	mv	s1,a0
    8000267c:	8a2e                	mv	s4,a1
    8000267e:	89b2                	mv	s3,a2
    80002680:	8936                	mv	s2,a3
  struct proc *p = myproc();
    80002682:	fffff097          	auipc	ra,0xfffff
    80002686:	404080e7          	jalr	1028(ra) # 80001a86 <myproc>

  if(user_dst)
    8000268a:	c08d                	beqz	s1,800026ac <either_copyout+0x42>
    return copyout(p->pagetable, dst, src, len);
    8000268c:	86ca                	mv	a3,s2
    8000268e:	864e                	mv	a2,s3
    80002690:	85d2                	mv	a1,s4
    80002692:	6928                	ld	a0,80(a0)
    80002694:	fffff097          	auipc	ra,0xfffff
    80002698:	076080e7          	jalr	118(ra) # 8000170a <copyout>
  else{
    memmove((char *)dst, src, len);
    return 0;
  }
}
    8000269c:	70a2                	ld	ra,40(sp)
    8000269e:	7402                	ld	s0,32(sp)
    800026a0:	64e2                	ld	s1,24(sp)
    800026a2:	6942                	ld	s2,16(sp)
    800026a4:	69a2                	ld	s3,8(sp)
    800026a6:	6a02                	ld	s4,0(sp)
    800026a8:	6145                	addi	sp,sp,48
    800026aa:	8082                	ret
    memmove((char *)dst, src, len);
    800026ac:	0009061b          	sext.w	a2,s2
    800026b0:	85ce                	mv	a1,s3
    800026b2:	8552                	mv	a0,s4
    800026b4:	ffffe097          	auipc	ra,0xffffe
    800026b8:	6f8080e7          	jalr	1784(ra) # 80000dac <memmove>
    return 0;
    800026bc:	8526                	mv	a0,s1
    800026be:	bff9                	j	8000269c <either_copyout+0x32>

00000000800026c0 <either_copyin>:

// Copia datos desde espacio de usuario o kernel
int
either_copyin(void *dst, int user_src, uint64 src, uint64 len)
{
    800026c0:	7179                	addi	sp,sp,-48
    800026c2:	f406                	sd	ra,40(sp)
    800026c4:	f022                	sd	s0,32(sp)
    800026c6:	ec26                	sd	s1,24(sp)
    800026c8:	e84a                	sd	s2,16(sp)
    800026ca:	e44e                	sd	s3,8(sp)
    800026cc:	e052                	sd	s4,0(sp)
    800026ce:	1800                	addi	s0,sp,48
    800026d0:	8a2a                	mv	s4,a0
    800026d2:	84ae                	mv	s1,a1
    800026d4:	89b2                	mv	s3,a2
    800026d6:	8936                	mv	s2,a3
  struct proc *p = myproc();
    800026d8:	fffff097          	auipc	ra,0xfffff
    800026dc:	3ae080e7          	jalr	942(ra) # 80001a86 <myproc>

  if(user_src)
    800026e0:	c08d                	beqz	s1,80002702 <either_copyin+0x42>
    return copyin(p->pagetable, dst, src, len);
    800026e2:	86ca                	mv	a3,s2
    800026e4:	864e                	mv	a2,s3
    800026e6:	85d2                	mv	a1,s4
    800026e8:	6928                	ld	a0,80(a0)
    800026ea:	fffff097          	auipc	ra,0xfffff
    800026ee:	0ac080e7          	jalr	172(ra) # 80001796 <copyin>
  else{
    memmove(dst, (char*)src, len);
    return 0;
  }
}
    800026f2:	70a2                	ld	ra,40(sp)
    800026f4:	7402                	ld	s0,32(sp)
    800026f6:	64e2                	ld	s1,24(sp)
    800026f8:	6942                	ld	s2,16(sp)
    800026fa:	69a2                	ld	s3,8(sp)
    800026fc:	6a02                	ld	s4,0(sp)
    800026fe:	6145                	addi	sp,sp,48
    80002700:	8082                	ret
    memmove(dst, (char*)src, len);
    80002702:	0009061b          	sext.w	a2,s2
    80002706:	85ce                	mv	a1,s3
    80002708:	8552                	mv	a0,s4
    8000270a:	ffffe097          	auipc	ra,0xffffe
    8000270e:	6a2080e7          	jalr	1698(ra) # 80000dac <memmove>
    return 0;
    80002712:	8526                	mv	a0,s1
    80002714:	bff9                	j	800026f2 <either_copyin+0x32>

0000000080002716 <procdump>:

// Imprime informacion de procesos (Ctrl+P)
void
procdump(void)
{
    80002716:	715d                	addi	sp,sp,-80
    80002718:	e486                	sd	ra,72(sp)
    8000271a:	e0a2                	sd	s0,64(sp)
    8000271c:	fc26                	sd	s1,56(sp)
    8000271e:	f84a                	sd	s2,48(sp)
    80002720:	f44e                	sd	s3,40(sp)
    80002722:	f052                	sd	s4,32(sp)
    80002724:	ec56                	sd	s5,24(sp)
    80002726:	e85a                	sd	s6,16(sp)
    80002728:	e45e                	sd	s7,8(sp)
    8000272a:	e062                	sd	s8,0(sp)
    8000272c:	0880                	addi	s0,sp,80
  };

  struct proc *p;
  char *state;

  printf("\n");
    8000272e:	00006517          	auipc	a0,0x6
    80002732:	8e250513          	addi	a0,a0,-1822 # 80008010 <etext+0x10>
    80002736:	ffffe097          	auipc	ra,0xffffe
    8000273a:	e6a080e7          	jalr	-406(ra) # 800005a0 <printf>

  for(p = proc; p < &proc[NPROC]; p++){
    8000273e:	00012497          	auipc	s1,0x12
    80002742:	f9248493          	addi	s1,s1,-110 # 800146d0 <proc>
    if(p->state == UNUSED)
      continue;

    if(p->state >= 0 && p->state < NELEM(states))
    80002746:	4b15                	li	s6,5
      state = states[p->state];
    else
      state = "???";
    80002748:	00006a97          	auipc	s5,0x6
    8000274c:	b50a8a93          	addi	s5,s5,-1200 # 80008298 <etext+0x298>
    if(p->exit_time > 0)
      wait_time = p->exit_time - p->create_time - p->total_run_time;
    else
      wait_time = ticks - p->create_time - p->total_run_time;

    printf("%d %d %s %d %d %d",
    80002750:	00006a17          	auipc	s4,0x6
    80002754:	b50a0a13          	addi	s4,s4,-1200 # 800082a0 <etext+0x2a0>
           p->total_run_time,
           wait_time,
           p->n_runs);
#endif

    printf("\n");
    80002758:	00006997          	auipc	s3,0x6
    8000275c:	8b898993          	addi	s3,s3,-1864 # 80008010 <etext+0x10>
      wait_time = ticks - p->create_time - p->total_run_time;
    80002760:	0000ac17          	auipc	s8,0xa
    80002764:	8d0c0c13          	addi	s8,s8,-1840 # 8000c030 <ticks>
      state = states[p->state];
    80002768:	00006b97          	auipc	s7,0x6
    8000276c:	0d8b8b93          	addi	s7,s7,216 # 80008840 <states.0>
  for(p = proc; p < &proc[NPROC]; p++){
    80002770:	00019917          	auipc	s2,0x19
    80002774:	16090913          	addi	s2,s2,352 # 8001b8d0 <tickslock>
    80002778:	a835                	j	800027b4 <procdump+0x9e>
      wait_time = ticks - p->create_time - p->total_run_time;
    8000277a:	1704b703          	ld	a4,368(s1)
    8000277e:	1804b783          	ld	a5,384(s1)
    80002782:	9f3d                	addw	a4,a4,a5
    80002784:	000c2783          	lw	a5,0(s8)
    80002788:	9f99                	subw	a5,a5,a4
    printf("%d %d %s %d %d %d",
    8000278a:	1a84b803          	ld	a6,424(s1)
    8000278e:	1804b703          	ld	a4,384(s1)
    80002792:	1b04b603          	ld	a2,432(s1)
    80002796:	588c                	lw	a1,48(s1)
    80002798:	8552                	mv	a0,s4
    8000279a:	ffffe097          	auipc	ra,0xffffe
    8000279e:	e06080e7          	jalr	-506(ra) # 800005a0 <printf>
    printf("\n");
    800027a2:	854e                	mv	a0,s3
    800027a4:	ffffe097          	auipc	ra,0xffffe
    800027a8:	dfc080e7          	jalr	-516(ra) # 800005a0 <printf>
  for(p = proc; p < &proc[NPROC]; p++){
    800027ac:	1c848493          	addi	s1,s1,456
    800027b0:	03248763          	beq	s1,s2,800027de <procdump+0xc8>
    if(p->state == UNUSED)
    800027b4:	4c9c                	lw	a5,24(s1)
    800027b6:	dbfd                	beqz	a5,800027ac <procdump+0x96>
      state = "???";
    800027b8:	86d6                	mv	a3,s5
    if(p->state >= 0 && p->state < NELEM(states))
    800027ba:	00fb6863          	bltu	s6,a5,800027ca <procdump+0xb4>
      state = states[p->state];
    800027be:	02079713          	slli	a4,a5,0x20
    800027c2:	01d75793          	srli	a5,a4,0x1d
    800027c6:	97de                	add	a5,a5,s7
    800027c8:	6394                	ld	a3,0(a5)
    if(p->exit_time > 0)
    800027ca:	1a04b783          	ld	a5,416(s1)
    800027ce:	d7d5                	beqz	a5,8000277a <procdump+0x64>
      wait_time = p->exit_time - p->create_time - p->total_run_time;
    800027d0:	1704b703          	ld	a4,368(s1)
    800027d4:	1804b603          	ld	a2,384(s1)
    800027d8:	9f31                	addw	a4,a4,a2
    800027da:	9f99                	subw	a5,a5,a4
    800027dc:	b77d                	j	8000278a <procdump+0x74>
  }
}
    800027de:	60a6                	ld	ra,72(sp)
    800027e0:	6406                	ld	s0,64(sp)
    800027e2:	74e2                	ld	s1,56(sp)
    800027e4:	7942                	ld	s2,48(sp)
    800027e6:	79a2                	ld	s3,40(sp)
    800027e8:	7a02                	ld	s4,32(sp)
    800027ea:	6ae2                	ld	s5,24(sp)
    800027ec:	6b42                	ld	s6,16(sp)
    800027ee:	6ba2                	ld	s7,8(sp)
    800027f0:	6c02                	ld	s8,0(sp)
    800027f2:	6161                	addi	sp,sp,80
    800027f4:	8082                	ret

00000000800027f6 <update_time>:

// Actualiza run_time y sleep_time cada tick
void
update_time(void)
{
    800027f6:	7179                	addi	sp,sp,-48
    800027f8:	f406                	sd	ra,40(sp)
    800027fa:	f022                	sd	s0,32(sp)
    800027fc:	ec26                	sd	s1,24(sp)
    800027fe:	e84a                	sd	s2,16(sp)
    80002800:	e44e                	sd	s3,8(sp)
    80002802:	e052                	sd	s4,0(sp)
    80002804:	1800                	addi	s0,sp,48
  struct proc* p;

  for(p = proc; p < &proc[NPROC]; p++)
    80002806:	00012497          	auipc	s1,0x12
    8000280a:	eca48493          	addi	s1,s1,-310 # 800146d0 <proc>
  {
    acquire(&p->lock);

    if(p->state == RUNNING){
    8000280e:	4991                	li	s3,4
      p->run_time += 1;
      p->total_run_time += 1;
    }
    else if(p->state == SLEEPING){
    80002810:	4a09                	li	s4,2
  for(p = proc; p < &proc[NPROC]; p++)
    80002812:	00019917          	auipc	s2,0x19
    80002816:	0be90913          	addi	s2,s2,190 # 8001b8d0 <tickslock>
    8000281a:	a025                	j	80002842 <update_time+0x4c>
      p->run_time += 1;
    8000281c:	1784b783          	ld	a5,376(s1)
    80002820:	0785                	addi	a5,a5,1
    80002822:	16f4bc23          	sd	a5,376(s1)
      p->total_run_time += 1;
    80002826:	1804b783          	ld	a5,384(s1)
    8000282a:	0785                	addi	a5,a5,1
    8000282c:	18f4b023          	sd	a5,384(s1)
      p->sleep_time += 1;
    }

    release(&p->lock);
    80002830:	8526                	mv	a0,s1
    80002832:	ffffe097          	auipc	ra,0xffffe
    80002836:	4d2080e7          	jalr	1234(ra) # 80000d04 <release>
  for(p = proc; p < &proc[NPROC]; p++)
    8000283a:	1c848493          	addi	s1,s1,456
    8000283e:	03248263          	beq	s1,s2,80002862 <update_time+0x6c>
    acquire(&p->lock);
    80002842:	8526                	mv	a0,s1
    80002844:	ffffe097          	auipc	ra,0xffffe
    80002848:	410080e7          	jalr	1040(ra) # 80000c54 <acquire>
    if(p->state == RUNNING){
    8000284c:	4c9c                	lw	a5,24(s1)
    8000284e:	fd3787e3          	beq	a5,s3,8000281c <update_time+0x26>
    else if(p->state == SLEEPING){
    80002852:	fd479fe3          	bne	a5,s4,80002830 <update_time+0x3a>
      p->sleep_time += 1;
    80002856:	1984b783          	ld	a5,408(s1)
    8000285a:	0785                	addi	a5,a5,1
    8000285c:	18f4bc23          	sd	a5,408(s1)
    80002860:	bfc1                	j	80002830 <update_time+0x3a>
  }
}
    80002862:	70a2                	ld	ra,40(sp)
    80002864:	7402                	ld	s0,32(sp)
    80002866:	64e2                	ld	s1,24(sp)
    80002868:	6942                	ld	s2,16(sp)
    8000286a:	69a2                	ld	s3,8(sp)
    8000286c:	6a02                	ld	s4,0(sp)
    8000286e:	6145                	addi	sp,sp,48
    80002870:	8082                	ret

0000000080002872 <setpriority>:

// Cambia prioridad estatica PBS
int
setpriority(int new_priority, int pid)
{
    80002872:	7179                	addi	sp,sp,-48
    80002874:	f406                	sd	ra,40(sp)
    80002876:	f022                	sd	s0,32(sp)
    80002878:	ec26                	sd	s1,24(sp)
    8000287a:	e84a                	sd	s2,16(sp)
    8000287c:	e44e                	sd	s3,8(sp)
    8000287e:	e052                	sd	s4,0(sp)
    80002880:	1800                	addi	s0,sp,48
    80002882:	8a2a                	mv	s4,a0
    80002884:	892e                	mv	s2,a1
  int prev_priority = 0;
  struct proc* p;

  for(p = proc; p < &proc[NPROC]; p++)
    80002886:	00012497          	auipc	s1,0x12
    8000288a:	e4a48493          	addi	s1,s1,-438 # 800146d0 <proc>
    8000288e:	00019997          	auipc	s3,0x19
    80002892:	04298993          	addi	s3,s3,66 # 8001b8d0 <tickslock>
  {
    acquire(&p->lock);
    80002896:	8526                	mv	a0,s1
    80002898:	ffffe097          	auipc	ra,0xffffe
    8000289c:	3bc080e7          	jalr	956(ra) # 80000c54 <acquire>

    if(p->pid == pid)
    800028a0:	589c                	lw	a5,48(s1)
    800028a2:	01278d63          	beq	a5,s2,800028bc <setpriority+0x4a>
        yield();

      break;
    }

    release(&p->lock);
    800028a6:	8526                	mv	a0,s1
    800028a8:	ffffe097          	auipc	ra,0xffffe
    800028ac:	45c080e7          	jalr	1116(ra) # 80000d04 <release>
  for(p = proc; p < &proc[NPROC]; p++)
    800028b0:	1c848493          	addi	s1,s1,456
    800028b4:	ff3491e3          	bne	s1,s3,80002896 <setpriority+0x24>
  int prev_priority = 0;
    800028b8:	4901                	li	s2,0
    800028ba:	a005                	j	800028da <setpriority+0x68>
      prev_priority = p->priority;
    800028bc:	1b04a903          	lw	s2,432(s1)
      p->priority = new_priority;
    800028c0:	1b44b823          	sd	s4,432(s1)
      p->sleep_time = 0;
    800028c4:	1804bc23          	sd	zero,408(s1)
      p->run_time = 0;
    800028c8:	1604bc23          	sd	zero,376(s1)
      release(&p->lock);
    800028cc:	8526                	mv	a0,s1
    800028ce:	ffffe097          	auipc	ra,0xffffe
    800028d2:	436080e7          	jalr	1078(ra) # 80000d04 <release>
      if(reschedule)
    800028d6:	012a4b63          	blt	s4,s2,800028ec <setpriority+0x7a>
  }

  return prev_priority;
}
    800028da:	854a                	mv	a0,s2
    800028dc:	70a2                	ld	ra,40(sp)
    800028de:	7402                	ld	s0,32(sp)
    800028e0:	64e2                	ld	s1,24(sp)
    800028e2:	6942                	ld	s2,16(sp)
    800028e4:	69a2                	ld	s3,8(sp)
    800028e6:	6a02                	ld	s4,0(sp)
    800028e8:	6145                	addi	sp,sp,48
    800028ea:	8082                	ret
        yield();
    800028ec:	00000097          	auipc	ra,0x0
    800028f0:	994080e7          	jalr	-1644(ra) # 80002280 <yield>
    800028f4:	b7dd                	j	800028da <setpriority+0x68>

00000000800028f6 <waitx>:

// waitx: igual que wait pero devuelve tiempos rtime y wtime
int
waitx(uint64 addr, uint* rtime, uint* wtime)
{
    800028f6:	711d                	addi	sp,sp,-96
    800028f8:	ec86                	sd	ra,88(sp)
    800028fa:	e8a2                	sd	s0,80(sp)
    800028fc:	e4a6                	sd	s1,72(sp)
    800028fe:	e0ca                	sd	s2,64(sp)
    80002900:	fc4e                	sd	s3,56(sp)
    80002902:	f852                	sd	s4,48(sp)
    80002904:	f456                	sd	s5,40(sp)
    80002906:	f05a                	sd	s6,32(sp)
    80002908:	ec5e                	sd	s7,24(sp)
    8000290a:	e862                	sd	s8,16(sp)
    8000290c:	e466                	sd	s9,8(sp)
    8000290e:	1080                	addi	s0,sp,96
    80002910:	8baa                	mv	s7,a0
    80002912:	8c2e                	mv	s8,a1
    80002914:	8cb2                	mv	s9,a2
  struct proc *np;
  int havekids, pid;
  struct proc *p = myproc();
    80002916:	fffff097          	auipc	ra,0xfffff
    8000291a:	170080e7          	jalr	368(ra) # 80001a86 <myproc>
    8000291e:	892a                	mv	s2,a0

  acquire(&wait_lock);
    80002920:	00012517          	auipc	a0,0x12
    80002924:	99850513          	addi	a0,a0,-1640 # 800142b8 <wait_lock>
    80002928:	ffffe097          	auipc	ra,0xffffe
    8000292c:	32c080e7          	jalr	812(ra) # 80000c54 <acquire>
      if(np->parent == p){

        acquire(&np->lock);
        havekids = 1;

        if(np->state == ZOMBIE){
    80002930:	4a15                	li	s4,5
        havekids = 1;
    80002932:	4a85                	li	s5,1
    for(np = proc; np < &proc[NPROC]; np++){
    80002934:	00019997          	auipc	s3,0x19
    80002938:	f9c98993          	addi	s3,s3,-100 # 8001b8d0 <tickslock>
    if(!havekids || p->killed){
      release(&wait_lock);
      return -1;
    }

    sleep(p, &wait_lock);
    8000293c:	00012b17          	auipc	s6,0x12
    80002940:	97cb0b13          	addi	s6,s6,-1668 # 800142b8 <wait_lock>
    80002944:	a8f1                	j	80002a20 <waitx+0x12a>
          pid = np->pid;
    80002946:	0304a983          	lw	s3,48(s1)
          *rtime = np->run_time;
    8000294a:	1784b783          	ld	a5,376(s1)
    8000294e:	00fc2023          	sw	a5,0(s8)
          *wtime = np->exit_time - np->create_time - np->run_time;
    80002952:	1a04b783          	ld	a5,416(s1)
    80002956:	1704b703          	ld	a4,368(s1)
    8000295a:	1784b683          	ld	a3,376(s1)
    8000295e:	9f35                	addw	a4,a4,a3
    80002960:	9f99                	subw	a5,a5,a4
    80002962:	00fca023          	sw	a5,0(s9)
          if(addr != 0 &&
    80002966:	000b8e63          	beqz	s7,80002982 <waitx+0x8c>
             copyout(p->pagetable,
    8000296a:	4691                	li	a3,4
    8000296c:	02c48613          	addi	a2,s1,44
    80002970:	85de                	mv	a1,s7
    80002972:	05093503          	ld	a0,80(s2)
    80002976:	fffff097          	auipc	ra,0xfffff
    8000297a:	d94080e7          	jalr	-620(ra) # 8000170a <copyout>
          if(addr != 0 &&
    8000297e:	04054263          	bltz	a0,800029c2 <waitx+0xcc>
          freeproc(np);
    80002982:	8526                	mv	a0,s1
    80002984:	fffff097          	auipc	ra,0xfffff
    80002988:	2b6080e7          	jalr	694(ra) # 80001c3a <freeproc>
          release(&np->lock);
    8000298c:	8526                	mv	a0,s1
    8000298e:	ffffe097          	auipc	ra,0xffffe
    80002992:	376080e7          	jalr	886(ra) # 80000d04 <release>
          release(&wait_lock);
    80002996:	00012517          	auipc	a0,0x12
    8000299a:	92250513          	addi	a0,a0,-1758 # 800142b8 <wait_lock>
    8000299e:	ffffe097          	auipc	ra,0xffffe
    800029a2:	366080e7          	jalr	870(ra) # 80000d04 <release>
  }
}
    800029a6:	854e                	mv	a0,s3
    800029a8:	60e6                	ld	ra,88(sp)
    800029aa:	6446                	ld	s0,80(sp)
    800029ac:	64a6                	ld	s1,72(sp)
    800029ae:	6906                	ld	s2,64(sp)
    800029b0:	79e2                	ld	s3,56(sp)
    800029b2:	7a42                	ld	s4,48(sp)
    800029b4:	7aa2                	ld	s5,40(sp)
    800029b6:	7b02                	ld	s6,32(sp)
    800029b8:	6be2                	ld	s7,24(sp)
    800029ba:	6c42                	ld	s8,16(sp)
    800029bc:	6ca2                	ld	s9,8(sp)
    800029be:	6125                	addi	sp,sp,96
    800029c0:	8082                	ret
            release(&np->lock);
    800029c2:	8526                	mv	a0,s1
    800029c4:	ffffe097          	auipc	ra,0xffffe
    800029c8:	340080e7          	jalr	832(ra) # 80000d04 <release>
            release(&wait_lock);
    800029cc:	00012517          	auipc	a0,0x12
    800029d0:	8ec50513          	addi	a0,a0,-1812 # 800142b8 <wait_lock>
    800029d4:	ffffe097          	auipc	ra,0xffffe
    800029d8:	330080e7          	jalr	816(ra) # 80000d04 <release>
            return -1;
    800029dc:	59fd                	li	s3,-1
    800029de:	b7e1                	j	800029a6 <waitx+0xb0>
    for(np = proc; np < &proc[NPROC]; np++){
    800029e0:	1c848493          	addi	s1,s1,456
    800029e4:	03348463          	beq	s1,s3,80002a0c <waitx+0x116>
      if(np->parent == p){
    800029e8:	7c9c                	ld	a5,56(s1)
    800029ea:	ff279be3          	bne	a5,s2,800029e0 <waitx+0xea>
        acquire(&np->lock);
    800029ee:	8526                	mv	a0,s1
    800029f0:	ffffe097          	auipc	ra,0xffffe
    800029f4:	264080e7          	jalr	612(ra) # 80000c54 <acquire>
        if(np->state == ZOMBIE){
    800029f8:	4c9c                	lw	a5,24(s1)
    800029fa:	f54786e3          	beq	a5,s4,80002946 <waitx+0x50>
        release(&np->lock);
    800029fe:	8526                	mv	a0,s1
    80002a00:	ffffe097          	auipc	ra,0xffffe
    80002a04:	304080e7          	jalr	772(ra) # 80000d04 <release>
        havekids = 1;
    80002a08:	8756                	mv	a4,s5
    80002a0a:	bfd9                	j	800029e0 <waitx+0xea>
    if(!havekids || p->killed){
    80002a0c:	c305                	beqz	a4,80002a2c <waitx+0x136>
    80002a0e:	02892783          	lw	a5,40(s2)
    80002a12:	ef89                	bnez	a5,80002a2c <waitx+0x136>
    sleep(p, &wait_lock);
    80002a14:	85da                	mv	a1,s6
    80002a16:	854a                	mv	a0,s2
    80002a18:	00000097          	auipc	ra,0x0
    80002a1c:	8a4080e7          	jalr	-1884(ra) # 800022bc <sleep>
    havekids = 0;
    80002a20:	4701                	li	a4,0
    for(np = proc; np < &proc[NPROC]; np++){
    80002a22:	00012497          	auipc	s1,0x12
    80002a26:	cae48493          	addi	s1,s1,-850 # 800146d0 <proc>
    80002a2a:	bf7d                	j	800029e8 <waitx+0xf2>
      release(&wait_lock);
    80002a2c:	00012517          	auipc	a0,0x12
    80002a30:	88c50513          	addi	a0,a0,-1908 # 800142b8 <wait_lock>
    80002a34:	ffffe097          	auipc	ra,0xffffe
    80002a38:	2d0080e7          	jalr	720(ra) # 80000d04 <release>
      return -1;
    80002a3c:	59fd                	li	s3,-1
    80002a3e:	b7a5                	j	800029a6 <waitx+0xb0>

0000000080002a40 <swtch>:
    80002a40:	00153023          	sd	ra,0(a0)
    80002a44:	00253423          	sd	sp,8(a0)
    80002a48:	e900                	sd	s0,16(a0)
    80002a4a:	ed04                	sd	s1,24(a0)
    80002a4c:	03253023          	sd	s2,32(a0)
    80002a50:	03353423          	sd	s3,40(a0)
    80002a54:	03453823          	sd	s4,48(a0)
    80002a58:	03553c23          	sd	s5,56(a0)
    80002a5c:	05653023          	sd	s6,64(a0)
    80002a60:	05753423          	sd	s7,72(a0)
    80002a64:	05853823          	sd	s8,80(a0)
    80002a68:	05953c23          	sd	s9,88(a0)
    80002a6c:	07a53023          	sd	s10,96(a0)
    80002a70:	07b53423          	sd	s11,104(a0)
    80002a74:	0005b083          	ld	ra,0(a1)
    80002a78:	0085b103          	ld	sp,8(a1)
    80002a7c:	6980                	ld	s0,16(a1)
    80002a7e:	6d84                	ld	s1,24(a1)
    80002a80:	0205b903          	ld	s2,32(a1)
    80002a84:	0285b983          	ld	s3,40(a1)
    80002a88:	0305ba03          	ld	s4,48(a1)
    80002a8c:	0385ba83          	ld	s5,56(a1)
    80002a90:	0405bb03          	ld	s6,64(a1)
    80002a94:	0485bb83          	ld	s7,72(a1)
    80002a98:	0505bc03          	ld	s8,80(a1)
    80002a9c:	0585bc83          	ld	s9,88(a1)
    80002aa0:	0605bd03          	ld	s10,96(a1)
    80002aa4:	0685bd83          	ld	s11,104(a1)
    80002aa8:	8082                	ret

0000000080002aaa <trapinit>:

extern int devintr();

void
trapinit(void)
{
    80002aaa:	1141                	addi	sp,sp,-16
    80002aac:	e406                	sd	ra,8(sp)
    80002aae:	e022                	sd	s0,0(sp)
    80002ab0:	0800                	addi	s0,sp,16
  initlock(&tickslock, "time");
    80002ab2:	00006597          	auipc	a1,0x6
    80002ab6:	83658593          	addi	a1,a1,-1994 # 800082e8 <etext+0x2e8>
    80002aba:	00019517          	auipc	a0,0x19
    80002abe:	e1650513          	addi	a0,a0,-490 # 8001b8d0 <tickslock>
    80002ac2:	ffffe097          	auipc	ra,0xffffe
    80002ac6:	0f8080e7          	jalr	248(ra) # 80000bba <initlock>
}
    80002aca:	60a2                	ld	ra,8(sp)
    80002acc:	6402                	ld	s0,0(sp)
    80002ace:	0141                	addi	sp,sp,16
    80002ad0:	8082                	ret

0000000080002ad2 <trapinithart>:

// set up to take exceptions and traps while in the kernel.
void
trapinithart(void)
{
    80002ad2:	1141                	addi	sp,sp,-16
    80002ad4:	e406                	sd	ra,8(sp)
    80002ad6:	e022                	sd	s0,0(sp)
    80002ad8:	0800                	addi	s0,sp,16
  asm volatile("csrw stvec, %0" : : "r" (x));
    80002ada:	00003797          	auipc	a5,0x3
    80002ade:	7d678793          	addi	a5,a5,2006 # 800062b0 <kernelvec>
    80002ae2:	10579073          	csrw	stvec,a5
  w_stvec((uint64)kernelvec);
}
    80002ae6:	60a2                	ld	ra,8(sp)
    80002ae8:	6402                	ld	s0,0(sp)
    80002aea:	0141                	addi	sp,sp,16
    80002aec:	8082                	ret

0000000080002aee <usertrapret>:
//
// return to user space
//
void
usertrapret(void)
{
    80002aee:	1141                	addi	sp,sp,-16
    80002af0:	e406                	sd	ra,8(sp)
    80002af2:	e022                	sd	s0,0(sp)
    80002af4:	0800                	addi	s0,sp,16
  struct proc *p = myproc();
    80002af6:	fffff097          	auipc	ra,0xfffff
    80002afa:	f90080e7          	jalr	-112(ra) # 80001a86 <myproc>
  asm volatile("csrr %0, sstatus" : "=r" (x) );
    80002afe:	100027f3          	csrr	a5,sstatus
  w_sstatus(r_sstatus() & ~SSTATUS_SIE);
    80002b02:	9bf5                	andi	a5,a5,-3
  asm volatile("csrw sstatus, %0" : : "r" (x));
    80002b04:	10079073          	csrw	sstatus,a5
  // kerneltrap() to usertrap(), so turn off interrupts until
  // we're back in user space, where usertrap() is correct.
  intr_off();

  // send syscalls, interrupts, and exceptions to trampoline.S
  w_stvec(TRAMPOLINE + (uservec - trampoline));
    80002b08:	00004697          	auipc	a3,0x4
    80002b0c:	4f868693          	addi	a3,a3,1272 # 80007000 <_trampoline>
    80002b10:	00004717          	auipc	a4,0x4
    80002b14:	4f070713          	addi	a4,a4,1264 # 80007000 <_trampoline>
    80002b18:	8f15                	sub	a4,a4,a3
    80002b1a:	040007b7          	lui	a5,0x4000
    80002b1e:	17fd                	addi	a5,a5,-1 # 3ffffff <_entry-0x7c000001>
    80002b20:	07b2                	slli	a5,a5,0xc
    80002b22:	973e                	add	a4,a4,a5
  asm volatile("csrw stvec, %0" : : "r" (x));
    80002b24:	10571073          	csrw	stvec,a4

  // set up trapframe values that uservec will need when
  // the process next re-enters the kernel.
  p->trapframe->kernel_satp = r_satp();         // kernel page table
    80002b28:	6d38                	ld	a4,88(a0)
  asm volatile("csrr %0, satp" : "=r" (x) );
    80002b2a:	18002673          	csrr	a2,satp
    80002b2e:	e310                	sd	a2,0(a4)
  p->trapframe->kernel_sp = p->kstack + PGSIZE; // process's kernel stack
    80002b30:	6d30                	ld	a2,88(a0)
    80002b32:	6138                	ld	a4,64(a0)
    80002b34:	6585                	lui	a1,0x1
    80002b36:	972e                	add	a4,a4,a1
    80002b38:	e618                	sd	a4,8(a2)
  p->trapframe->kernel_trap = (uint64)usertrap;
    80002b3a:	6d38                	ld	a4,88(a0)
    80002b3c:	00000617          	auipc	a2,0x0
    80002b40:	15260613          	addi	a2,a2,338 # 80002c8e <usertrap>
    80002b44:	eb10                	sd	a2,16(a4)
  p->trapframe->kernel_hartid = r_tp();         // hartid for cpuid()
    80002b46:	6d38                	ld	a4,88(a0)
  asm volatile("mv %0, tp" : "=r" (x) );
    80002b48:	8612                	mv	a2,tp
    80002b4a:	f310                	sd	a2,32(a4)
  asm volatile("csrr %0, sstatus" : "=r" (x) );
    80002b4c:	10002773          	csrr	a4,sstatus
  // set up the registers that trampoline.S's sret will use
  // to get to user space.
  
  // set S Previous Privilege mode to User.
  unsigned long x = r_sstatus();
  x &= ~SSTATUS_SPP; // clear SPP to 0 for user mode
    80002b50:	eff77713          	andi	a4,a4,-257
  x |= SSTATUS_SPIE; // enable interrupts in user mode
    80002b54:	02076713          	ori	a4,a4,32
  asm volatile("csrw sstatus, %0" : : "r" (x));
    80002b58:	10071073          	csrw	sstatus,a4
  w_sstatus(x);

  // set S Exception Program Counter to the saved user pc.
  w_sepc(p->trapframe->epc);
    80002b5c:	6d38                	ld	a4,88(a0)
  asm volatile("csrw sepc, %0" : : "r" (x));
    80002b5e:	6f18                	ld	a4,24(a4)
    80002b60:	14171073          	csrw	sepc,a4

  // tell trampoline.S the user page table to switch to.
  uint64 satp = MAKE_SATP(p->pagetable);
    80002b64:	692c                	ld	a1,80(a0)
    80002b66:	81b1                	srli	a1,a1,0xc

  // jump to trampoline.S at the top of memory, which 
  // switches to the user page table, restores user registers,
  // and switches to user mode with sret.
  uint64 fn = TRAMPOLINE + (userret - trampoline);
    80002b68:	00004717          	auipc	a4,0x4
    80002b6c:	52870713          	addi	a4,a4,1320 # 80007090 <userret>
    80002b70:	8f15                	sub	a4,a4,a3
    80002b72:	97ba                	add	a5,a5,a4
  ((void (*)(uint64,uint64))fn)(TRAPFRAME, satp);
    80002b74:	577d                	li	a4,-1
    80002b76:	177e                	slli	a4,a4,0x3f
    80002b78:	8dd9                	or	a1,a1,a4
    80002b7a:	02000537          	lui	a0,0x2000
    80002b7e:	157d                	addi	a0,a0,-1 # 1ffffff <_entry-0x7e000001>
    80002b80:	0536                	slli	a0,a0,0xd
    80002b82:	9782                	jalr	a5
}
    80002b84:	60a2                	ld	ra,8(sp)
    80002b86:	6402                	ld	s0,0(sp)
    80002b88:	0141                	addi	sp,sp,16
    80002b8a:	8082                	ret

0000000080002b8c <clockintr>:
  w_sstatus(sstatus);
}

void
clockintr()
{
    80002b8c:	1141                	addi	sp,sp,-16
    80002b8e:	e406                	sd	ra,8(sp)
    80002b90:	e022                	sd	s0,0(sp)
    80002b92:	0800                	addi	s0,sp,16
  acquire(&tickslock);
    80002b94:	00019517          	auipc	a0,0x19
    80002b98:	d3c50513          	addi	a0,a0,-708 # 8001b8d0 <tickslock>
    80002b9c:	ffffe097          	auipc	ra,0xffffe
    80002ba0:	0b8080e7          	jalr	184(ra) # 80000c54 <acquire>
  ticks++;
    80002ba4:	00009717          	auipc	a4,0x9
    80002ba8:	48c70713          	addi	a4,a4,1164 # 8000c030 <ticks>
    80002bac:	431c                	lw	a5,0(a4)
    80002bae:	2785                	addiw	a5,a5,1
    80002bb0:	c31c                	sw	a5,0(a4)
  update_time();
    80002bb2:	00000097          	auipc	ra,0x0
    80002bb6:	c44080e7          	jalr	-956(ra) # 800027f6 <update_time>
  wakeup(&ticks);
    80002bba:	00009517          	auipc	a0,0x9
    80002bbe:	47650513          	addi	a0,a0,1142 # 8000c030 <ticks>
    80002bc2:	00000097          	auipc	ra,0x0
    80002bc6:	880080e7          	jalr	-1920(ra) # 80002442 <wakeup>
  release(&tickslock);
    80002bca:	00019517          	auipc	a0,0x19
    80002bce:	d0650513          	addi	a0,a0,-762 # 8001b8d0 <tickslock>
    80002bd2:	ffffe097          	auipc	ra,0xffffe
    80002bd6:	132080e7          	jalr	306(ra) # 80000d04 <release>
}
    80002bda:	60a2                	ld	ra,8(sp)
    80002bdc:	6402                	ld	s0,0(sp)
    80002bde:	0141                	addi	sp,sp,16
    80002be0:	8082                	ret

0000000080002be2 <devintr>:
  asm volatile("csrr %0, scause" : "=r" (x) );
    80002be2:	142027f3          	csrr	a5,scause
    // the SSIP bit in sip.
    w_sip(r_sip() & ~2);

    return 2;
  } else {
