
user/_forktest:     file format elf64-littleriscv


Disassembly of section .text:

0000000000000000 <print>:

#define N  1000

void
print(const char *s)
{
   0:	1101                	addi	sp,sp,-32
   2:	ec06                	sd	ra,24(sp)
   4:	e822                	sd	s0,16(sp)
   6:	e426                	sd	s1,8(sp)
   8:	1000                	addi	s0,sp,32
   a:	84aa                	mv	s1,a0
  write(1, s, strlen(s));
   c:	00000097          	auipc	ra,0x0
  10:	158080e7          	jalr	344(ra) # 164 <strlen>
  14:	862a                	mv	a2,a0
  16:	85a6                	mv	a1,s1
  18:	4505                	li	a0,1
  1a:	00000097          	auipc	ra,0x0
  1e:	3a8080e7          	jalr	936(ra) # 3c2 <write>
}
  22:	60e2                	ld	ra,24(sp)
  24:	6442                	ld	s0,16(sp)
  26:	64a2                	ld	s1,8(sp)
  28:	6105                	addi	sp,sp,32
  2a:	8082                	ret

000000000000002c <forktest>:

void
forktest(void)
{
  2c:	1101                	addi	sp,sp,-32
  2e:	ec06                	sd	ra,24(sp)
  30:	e822                	sd	s0,16(sp)
  32:	e426                	sd	s1,8(sp)
  34:	e04a                	sd	s2,0(sp)
  36:	1000                	addi	s0,sp,32
  int n, pid;

  print("fork test\n");
  38:	00000517          	auipc	a0,0x0
  3c:	42850513          	addi	a0,a0,1064 # 460 <waitx+0xe>
  40:	00000097          	auipc	ra,0x0
  44:	fc0080e7          	jalr	-64(ra) # 0 <print>

  for(n=0; n<N; n++){
  48:	4481                	li	s1,0
  4a:	3e800913          	li	s2,1000
    pid = fork();
  4e:	00000097          	auipc	ra,0x0
  52:	34c080e7          	jalr	844(ra) # 39a <fork>
    if(pid < 0)
  56:	06054163          	bltz	a0,b8 <forktest+0x8c>
      break;
    if(pid == 0)
  5a:	c10d                	beqz	a0,7c <forktest+0x50>
  for(n=0; n<N; n++){
  5c:	2485                	addiw	s1,s1,1
  5e:	ff2498e3          	bne	s1,s2,4e <forktest+0x22>
      exit(0);
  }

  if(n == N){
    print("fork claimed to work N times!\n");
  62:	00000517          	auipc	a0,0x0
  66:	44e50513          	addi	a0,a0,1102 # 4b0 <waitx+0x5e>
  6a:	00000097          	auipc	ra,0x0
  6e:	f96080e7          	jalr	-106(ra) # 0 <print>
    exit(1);
  72:	4505                	li	a0,1
  74:	00000097          	auipc	ra,0x0
  78:	32e080e7          	jalr	814(ra) # 3a2 <exit>
      exit(0);
  7c:	00000097          	auipc	ra,0x0
  80:	326080e7          	jalr	806(ra) # 3a2 <exit>
  }

  for(; n > 0; n--){
    if(wait(0) < 0){
      print("wait stopped early\n");
  84:	00000517          	auipc	a0,0x0
  88:	3ec50513          	addi	a0,a0,1004 # 470 <waitx+0x1e>
  8c:	00000097          	auipc	ra,0x0
  90:	f74080e7          	jalr	-140(ra) # 0 <print>
      exit(1);
  94:	4505                	li	a0,1
  96:	00000097          	auipc	ra,0x0
  9a:	30c080e7          	jalr	780(ra) # 3a2 <exit>
    }
  }

  if(wait(0) != -1){
    print("wait got too many\n");
  9e:	00000517          	auipc	a0,0x0
  a2:	3ea50513          	addi	a0,a0,1002 # 488 <waitx+0x36>
  a6:	00000097          	auipc	ra,0x0
  aa:	f5a080e7          	jalr	-166(ra) # 0 <print>
    exit(1);
  ae:	4505                	li	a0,1
  b0:	00000097          	auipc	ra,0x0
  b4:	2f2080e7          	jalr	754(ra) # 3a2 <exit>
  for(; n > 0; n--){
  b8:	00905b63          	blez	s1,ce <forktest+0xa2>
    if(wait(0) < 0){
  bc:	4501                	li	a0,0
  be:	00000097          	auipc	ra,0x0
  c2:	2ec080e7          	jalr	748(ra) # 3aa <wait>
  c6:	fa054fe3          	bltz	a0,84 <forktest+0x58>
  for(; n > 0; n--){
  ca:	34fd                	addiw	s1,s1,-1
  cc:	f8e5                	bnez	s1,bc <forktest+0x90>
  if(wait(0) != -1){
  ce:	4501                	li	a0,0
  d0:	00000097          	auipc	ra,0x0
  d4:	2da080e7          	jalr	730(ra) # 3aa <wait>
  d8:	57fd                	li	a5,-1
  da:	fcf512e3          	bne	a0,a5,9e <forktest+0x72>
  }

  print("fork test OK\n");
  de:	00000517          	auipc	a0,0x0
  e2:	3c250513          	addi	a0,a0,962 # 4a0 <waitx+0x4e>
  e6:	00000097          	auipc	ra,0x0
  ea:	f1a080e7          	jalr	-230(ra) # 0 <print>
}
  ee:	60e2                	ld	ra,24(sp)
  f0:	6442                	ld	s0,16(sp)
  f2:	64a2                	ld	s1,8(sp)
  f4:	6902                	ld	s2,0(sp)
  f6:	6105                	addi	sp,sp,32
  f8:	8082                	ret

00000000000000fa <main>:

int
main(void)
{
  fa:	1141                	addi	sp,sp,-16
  fc:	e406                	sd	ra,8(sp)
  fe:	e022                	sd	s0,0(sp)
 100:	0800                	addi	s0,sp,16
  forktest();
 102:	00000097          	auipc	ra,0x0
 106:	f2a080e7          	jalr	-214(ra) # 2c <forktest>
  exit(0);
 10a:	4501                	li	a0,0
 10c:	00000097          	auipc	ra,0x0
 110:	296080e7          	jalr	662(ra) # 3a2 <exit>

0000000000000114 <strcpy>:
#include "kernel/fcntl.h"
#include "user/user.h"

char*
strcpy(char *s, const char *t)
{
 114:	1141                	addi	sp,sp,-16
 116:	e406                	sd	ra,8(sp)
 118:	e022                	sd	s0,0(sp)
 11a:	0800                	addi	s0,sp,16
  char *os;

  os = s;
  while((*s++ = *t++) != 0)
 11c:	87aa                	mv	a5,a0
 11e:	0585                	addi	a1,a1,1
 120:	0785                	addi	a5,a5,1
 122:	fff5c703          	lbu	a4,-1(a1)
 126:	fee78fa3          	sb	a4,-1(a5)
 12a:	fb75                	bnez	a4,11e <strcpy+0xa>
    ;
  return os;
}
 12c:	60a2                	ld	ra,8(sp)
 12e:	6402                	ld	s0,0(sp)
 130:	0141                	addi	sp,sp,16
 132:	8082                	ret

0000000000000134 <strcmp>:

int
strcmp(const char *p, const char *q)
{
 134:	1141                	addi	sp,sp,-16
 136:	e406                	sd	ra,8(sp)
 138:	e022                	sd	s0,0(sp)
 13a:	0800                	addi	s0,sp,16
  while(*p && *p == *q)
 13c:	00054783          	lbu	a5,0(a0)
 140:	cb91                	beqz	a5,154 <strcmp+0x20>
 142:	0005c703          	lbu	a4,0(a1)
 146:	00f71763          	bne	a4,a5,154 <strcmp+0x20>
    p++, q++;
 14a:	0505                	addi	a0,a0,1
 14c:	0585                	addi	a1,a1,1
  while(*p && *p == *q)
 14e:	00054783          	lbu	a5,0(a0)
 152:	fbe5                	bnez	a5,142 <strcmp+0xe>
  return (uchar)*p - (uchar)*q;
 154:	0005c503          	lbu	a0,0(a1)
}
 158:	40a7853b          	subw	a0,a5,a0
 15c:	60a2                	ld	ra,8(sp)
 15e:	6402                	ld	s0,0(sp)
 160:	0141                	addi	sp,sp,16
 162:	8082                	ret

0000000000000164 <strlen>:

uint
strlen(const char *s)
{
 164:	1141                	addi	sp,sp,-16
 166:	e406                	sd	ra,8(sp)
 168:	e022                	sd	s0,0(sp)
 16a:	0800                	addi	s0,sp,16
  int n;

  for(n = 0; s[n]; n++)
 16c:	00054783          	lbu	a5,0(a0)
 170:	cf91                	beqz	a5,18c <strlen+0x28>
 172:	00150793          	addi	a5,a0,1
 176:	86be                	mv	a3,a5
 178:	0785                	addi	a5,a5,1
 17a:	fff7c703          	lbu	a4,-1(a5)
 17e:	ff65                	bnez	a4,176 <strlen+0x12>
 180:	40a6853b          	subw	a0,a3,a0
    ;
  return n;
}
 184:	60a2                	ld	ra,8(sp)
 186:	6402                	ld	s0,0(sp)
 188:	0141                	addi	sp,sp,16
 18a:	8082                	ret
  for(n = 0; s[n]; n++)
 18c:	4501                	li	a0,0
 18e:	bfdd                	j	184 <strlen+0x20>

0000000000000190 <memset>:

void*
memset(void *dst, int c, uint n)
{
 190:	1141                	addi	sp,sp,-16
 192:	e406                	sd	ra,8(sp)
 194:	e022                	sd	s0,0(sp)
 196:	0800                	addi	s0,sp,16
  char *cdst = (char *) dst;
  int i;
  for(i = 0; i < n; i++){
 198:	ca19                	beqz	a2,1ae <memset+0x1e>
 19a:	87aa                	mv	a5,a0
 19c:	1602                	slli	a2,a2,0x20
 19e:	9201                	srli	a2,a2,0x20
 1a0:	00a60733          	add	a4,a2,a0
    cdst[i] = c;
 1a4:	00b78023          	sb	a1,0(a5)
  for(i = 0; i < n; i++){
 1a8:	0785                	addi	a5,a5,1
 1aa:	fee79de3          	bne	a5,a4,1a4 <memset+0x14>
  }
  return dst;
}
 1ae:	60a2                	ld	ra,8(sp)
 1b0:	6402                	ld	s0,0(sp)
 1b2:	0141                	addi	sp,sp,16
 1b4:	8082                	ret

00000000000001b6 <strchr>:

char*
strchr(const char *s, char c)
{
 1b6:	1141                	addi	sp,sp,-16
 1b8:	e406                	sd	ra,8(sp)
 1ba:	e022                	sd	s0,0(sp)
 1bc:	0800                	addi	s0,sp,16
  for(; *s; s++)
 1be:	00054783          	lbu	a5,0(a0)
 1c2:	cf81                	beqz	a5,1da <strchr+0x24>
    if(*s == c)
 1c4:	00f58763          	beq	a1,a5,1d2 <strchr+0x1c>
  for(; *s; s++)
 1c8:	0505                	addi	a0,a0,1
 1ca:	00054783          	lbu	a5,0(a0)
 1ce:	fbfd                	bnez	a5,1c4 <strchr+0xe>
      return (char*)s;
  return 0;
 1d0:	4501                	li	a0,0
}
 1d2:	60a2                	ld	ra,8(sp)
 1d4:	6402                	ld	s0,0(sp)
 1d6:	0141                	addi	sp,sp,16
 1d8:	8082                	ret
  return 0;
 1da:	4501                	li	a0,0
 1dc:	bfdd                	j	1d2 <strchr+0x1c>

00000000000001de <gets>:

char*
gets(char *buf, int max)
{
 1de:	711d                	addi	sp,sp,-96
 1e0:	ec86                	sd	ra,88(sp)
 1e2:	e8a2                	sd	s0,80(sp)
 1e4:	e4a6                	sd	s1,72(sp)
 1e6:	e0ca                	sd	s2,64(sp)
 1e8:	fc4e                	sd	s3,56(sp)
 1ea:	f852                	sd	s4,48(sp)
 1ec:	f456                	sd	s5,40(sp)
 1ee:	f05a                	sd	s6,32(sp)
 1f0:	ec5e                	sd	s7,24(sp)
 1f2:	e862                	sd	s8,16(sp)
 1f4:	1080                	addi	s0,sp,96
 1f6:	8baa                	mv	s7,a0
 1f8:	8a2e                	mv	s4,a1
  int i, cc;
  char c;

  for(i=0; i+1 < max; ){
 1fa:	892a                	mv	s2,a0
 1fc:	4481                	li	s1,0
    cc = read(0, &c, 1);
 1fe:	faf40b13          	addi	s6,s0,-81
 202:	4a85                	li	s5,1
  for(i=0; i+1 < max; ){
 204:	8c26                	mv	s8,s1
 206:	0014899b          	addiw	s3,s1,1
 20a:	84ce                	mv	s1,s3
 20c:	0349d663          	bge	s3,s4,238 <gets+0x5a>
    cc = read(0, &c, 1);
 210:	8656                	mv	a2,s5
 212:	85da                	mv	a1,s6
 214:	4501                	li	a0,0
 216:	00000097          	auipc	ra,0x0
 21a:	1a4080e7          	jalr	420(ra) # 3ba <read>
    if(cc < 1)
 21e:	00a05d63          	blez	a0,238 <gets+0x5a>
      break;
    buf[i++] = c;
 222:	faf44783          	lbu	a5,-81(s0)
 226:	00f90023          	sb	a5,0(s2)
    if(c == '\n' || c == '\r')
 22a:	0905                	addi	s2,s2,1
 22c:	ff678713          	addi	a4,a5,-10
 230:	c319                	beqz	a4,236 <gets+0x58>
 232:	17cd                	addi	a5,a5,-13
 234:	fbe1                	bnez	a5,204 <gets+0x26>
    buf[i++] = c;
 236:	8c4e                	mv	s8,s3
      break;
  }
  buf[i] = '\0';
 238:	9c5e                	add	s8,s8,s7
 23a:	000c0023          	sb	zero,0(s8)
  return buf;
}
 23e:	855e                	mv	a0,s7
 240:	60e6                	ld	ra,88(sp)
 242:	6446                	ld	s0,80(sp)
 244:	64a6                	ld	s1,72(sp)
 246:	6906                	ld	s2,64(sp)
 248:	79e2                	ld	s3,56(sp)
 24a:	7a42                	ld	s4,48(sp)
 24c:	7aa2                	ld	s5,40(sp)
 24e:	7b02                	ld	s6,32(sp)
 250:	6be2                	ld	s7,24(sp)
 252:	6c42                	ld	s8,16(sp)
 254:	6125                	addi	sp,sp,96
 256:	8082                	ret

0000000000000258 <stat>:

int
stat(const char *n, struct stat *st)
{
 258:	1101                	addi	sp,sp,-32
 25a:	ec06                	sd	ra,24(sp)
 25c:	e822                	sd	s0,16(sp)
 25e:	e04a                	sd	s2,0(sp)
 260:	1000                	addi	s0,sp,32
 262:	892e                	mv	s2,a1
  int fd;
  int r;

  fd = open(n, O_RDONLY);
 264:	4581                	li	a1,0
 266:	00000097          	auipc	ra,0x0
 26a:	17c080e7          	jalr	380(ra) # 3e2 <open>
  if(fd < 0)
 26e:	02054663          	bltz	a0,29a <stat+0x42>
 272:	e426                	sd	s1,8(sp)
 274:	84aa                	mv	s1,a0
    return -1;
  r = fstat(fd, st);
 276:	85ca                	mv	a1,s2
 278:	00000097          	auipc	ra,0x0
 27c:	182080e7          	jalr	386(ra) # 3fa <fstat>
 280:	892a                	mv	s2,a0
  close(fd);
 282:	8526                	mv	a0,s1
 284:	00000097          	auipc	ra,0x0
 288:	146080e7          	jalr	326(ra) # 3ca <close>
  return r;
 28c:	64a2                	ld	s1,8(sp)
}
 28e:	854a                	mv	a0,s2
 290:	60e2                	ld	ra,24(sp)
 292:	6442                	ld	s0,16(sp)
 294:	6902                	ld	s2,0(sp)
 296:	6105                	addi	sp,sp,32
 298:	8082                	ret
    return -1;
 29a:	57fd                	li	a5,-1
 29c:	893e                	mv	s2,a5
 29e:	bfc5                	j	28e <stat+0x36>

00000000000002a0 <atoi>:

int
atoi(const char *s)
{
 2a0:	1141                	addi	sp,sp,-16
 2a2:	e406                	sd	ra,8(sp)
 2a4:	e022                	sd	s0,0(sp)
 2a6:	0800                	addi	s0,sp,16
  int n;

  n = 0;
  while('0' <= *s && *s <= '9')
 2a8:	00054683          	lbu	a3,0(a0)
 2ac:	fd06879b          	addiw	a5,a3,-48
 2b0:	0ff7f793          	zext.b	a5,a5
 2b4:	4625                	li	a2,9
 2b6:	02f66963          	bltu	a2,a5,2e8 <atoi+0x48>
 2ba:	872a                	mv	a4,a0
  n = 0;
 2bc:	4501                	li	a0,0
    n = n*10 + *s++ - '0';
 2be:	0705                	addi	a4,a4,1
 2c0:	0025179b          	slliw	a5,a0,0x2
 2c4:	9fa9                	addw	a5,a5,a0
 2c6:	0017979b          	slliw	a5,a5,0x1
 2ca:	9fb5                	addw	a5,a5,a3
 2cc:	fd07851b          	addiw	a0,a5,-48
  while('0' <= *s && *s <= '9')
 2d0:	00074683          	lbu	a3,0(a4)
 2d4:	fd06879b          	addiw	a5,a3,-48
 2d8:	0ff7f793          	zext.b	a5,a5
 2dc:	fef671e3          	bgeu	a2,a5,2be <atoi+0x1e>
  return n;
}
 2e0:	60a2                	ld	ra,8(sp)
 2e2:	6402                	ld	s0,0(sp)
 2e4:	0141                	addi	sp,sp,16
 2e6:	8082                	ret
  n = 0;
 2e8:	4501                	li	a0,0
 2ea:	bfdd                	j	2e0 <atoi+0x40>

00000000000002ec <memmove>:

void*
memmove(void *vdst, const void *vsrc, int n)
{
 2ec:	1141                	addi	sp,sp,-16
 2ee:	e406                	sd	ra,8(sp)
 2f0:	e022                	sd	s0,0(sp)
 2f2:	0800                	addi	s0,sp,16
  char *dst;
  const char *src;

  dst = vdst;
  src = vsrc;
  if (src > dst) {
 2f4:	02b57563          	bgeu	a0,a1,31e <memmove+0x32>
    while(n-- > 0)
 2f8:	00c05f63          	blez	a2,316 <memmove+0x2a>
 2fc:	1602                	slli	a2,a2,0x20
 2fe:	9201                	srli	a2,a2,0x20
 300:	00c507b3          	add	a5,a0,a2
  dst = vdst;
 304:	872a                	mv	a4,a0
      *dst++ = *src++;
 306:	0585                	addi	a1,a1,1
 308:	0705                	addi	a4,a4,1
 30a:	fff5c683          	lbu	a3,-1(a1)
 30e:	fed70fa3          	sb	a3,-1(a4)
    while(n-- > 0)
 312:	fee79ae3          	bne	a5,a4,306 <memmove+0x1a>
    src += n;
    while(n-- > 0)
      *--dst = *--src;
  }
  return vdst;
}
 316:	60a2                	ld	ra,8(sp)
 318:	6402                	ld	s0,0(sp)
 31a:	0141                	addi	sp,sp,16
 31c:	8082                	ret
    while(n-- > 0)
 31e:	fec05ce3          	blez	a2,316 <memmove+0x2a>
    dst += n;
 322:	00c50733          	add	a4,a0,a2
    src += n;
 326:	95b2                	add	a1,a1,a2
 328:	fff6079b          	addiw	a5,a2,-1
 32c:	1782                	slli	a5,a5,0x20
 32e:	9381                	srli	a5,a5,0x20
 330:	fff7c793          	not	a5,a5
 334:	97ba                	add	a5,a5,a4
      *--dst = *--src;
 336:	15fd                	addi	a1,a1,-1
 338:	177d                	addi	a4,a4,-1
 33a:	0005c683          	lbu	a3,0(a1)
 33e:	00d70023          	sb	a3,0(a4)
    while(n-- > 0)
 342:	fef71ae3          	bne	a4,a5,336 <memmove+0x4a>
 346:	bfc1                	j	316 <memmove+0x2a>

0000000000000348 <memcmp>:

int
memcmp(const void *s1, const void *s2, uint n)
{
 348:	1141                	addi	sp,sp,-16
 34a:	e406                	sd	ra,8(sp)
 34c:	e022                	sd	s0,0(sp)
 34e:	0800                	addi	s0,sp,16
  const char *p1 = s1, *p2 = s2;
  while (n-- > 0) {
 350:	c61d                	beqz	a2,37e <memcmp+0x36>
 352:	1602                	slli	a2,a2,0x20
 354:	9201                	srli	a2,a2,0x20
 356:	00c506b3          	add	a3,a0,a2
    if (*p1 != *p2) {
 35a:	00054783          	lbu	a5,0(a0)
 35e:	0005c703          	lbu	a4,0(a1)
 362:	00e79863          	bne	a5,a4,372 <memcmp+0x2a>
      return *p1 - *p2;
    }
    p1++;
 366:	0505                	addi	a0,a0,1
    p2++;
 368:	0585                	addi	a1,a1,1
  while (n-- > 0) {
 36a:	fed518e3          	bne	a0,a3,35a <memcmp+0x12>
  }
  return 0;
 36e:	4501                	li	a0,0
 370:	a019                	j	376 <memcmp+0x2e>
      return *p1 - *p2;
 372:	40e7853b          	subw	a0,a5,a4
}
 376:	60a2                	ld	ra,8(sp)
 378:	6402                	ld	s0,0(sp)
 37a:	0141                	addi	sp,sp,16
 37c:	8082                	ret
  return 0;
 37e:	4501                	li	a0,0
 380:	bfdd                	j	376 <memcmp+0x2e>

0000000000000382 <memcpy>:

void *
memcpy(void *dst, const void *src, uint n)
{
 382:	1141                	addi	sp,sp,-16
 384:	e406                	sd	ra,8(sp)
 386:	e022                	sd	s0,0(sp)
 388:	0800                	addi	s0,sp,16
  return memmove(dst, src, n);
 38a:	00000097          	auipc	ra,0x0
 38e:	f62080e7          	jalr	-158(ra) # 2ec <memmove>
}
 392:	60a2                	ld	ra,8(sp)
 394:	6402                	ld	s0,0(sp)
 396:	0141                	addi	sp,sp,16
 398:	8082                	ret

000000000000039a <fork>:
# generated by usys.pl - do not edit
#include "kernel/syscall.h"
.global fork
fork:
 li a7, SYS_fork
 39a:	4885                	li	a7,1
 ecall
 39c:	00000073          	ecall
 ret
 3a0:	8082                	ret

00000000000003a2 <exit>:
.global exit
exit:
 li a7, SYS_exit
 3a2:	4889                	li	a7,2
 ecall
 3a4:	00000073          	ecall
 ret
 3a8:	8082                	ret

00000000000003aa <wait>:
.global wait
wait:
 li a7, SYS_wait
 3aa:	488d                	li	a7,3
 ecall
 3ac:	00000073          	ecall
 ret
 3b0:	8082                	ret

00000000000003b2 <pipe>:
.global pipe
pipe:
 li a7, SYS_pipe
 3b2:	4891                	li	a7,4
 ecall
 3b4:	00000073          	ecall
 ret
 3b8:	8082                	ret

00000000000003ba <read>:
.global read
read:
 li a7, SYS_read
 3ba:	4895                	li	a7,5
 ecall
 3bc:	00000073          	ecall
 ret
 3c0:	8082                	ret

00000000000003c2 <write>:
.global write
write:
 li a7, SYS_write
 3c2:	48c1                	li	a7,16
 ecall
 3c4:	00000073          	ecall
 ret
 3c8:	8082                	ret

00000000000003ca <close>:
.global close
close:
 li a7, SYS_close
 3ca:	48d5                	li	a7,21
 ecall
 3cc:	00000073          	ecall
 ret
 3d0:	8082                	ret

00000000000003d2 <kill>:
.global kill
kill:
 li a7, SYS_kill
 3d2:	4899                	li	a7,6
 ecall
 3d4:	00000073          	ecall
 ret
 3d8:	8082                	ret

00000000000003da <exec>:
.global exec
exec:
 li a7, SYS_exec
 3da:	489d                	li	a7,7
 ecall
 3dc:	00000073          	ecall
 ret
 3e0:	8082                	ret

00000000000003e2 <open>:
.global open
open:
 li a7, SYS_open
 3e2:	48bd                	li	a7,15
 ecall
 3e4:	00000073          	ecall
 ret
 3e8:	8082                	ret

00000000000003ea <mknod>:
.global mknod
mknod:
 li a7, SYS_mknod
 3ea:	48c5                	li	a7,17
 ecall
 3ec:	00000073          	ecall
 ret
 3f0:	8082                	ret

00000000000003f2 <unlink>:
.global unlink
unlink:
 li a7, SYS_unlink
 3f2:	48c9                	li	a7,18
 ecall
 3f4:	00000073          	ecall
 ret
 3f8:	8082                	ret

00000000000003fa <fstat>:
.global fstat
fstat:
 li a7, SYS_fstat
 3fa:	48a1                	li	a7,8
 ecall
 3fc:	00000073          	ecall
 ret
 400:	8082                	ret

0000000000000402 <link>:
.global link
link:
 li a7, SYS_link
 402:	48cd                	li	a7,19
 ecall
 404:	00000073          	ecall
 ret
 408:	8082                	ret

000000000000040a <mkdir>:
.global mkdir
mkdir:
 li a7, SYS_mkdir
 40a:	48d1                	li	a7,20
 ecall
 40c:	00000073          	ecall
 ret
 410:	8082                	ret

0000000000000412 <chdir>:
.global chdir
chdir:
 li a7, SYS_chdir
 412:	48a5                	li	a7,9
 ecall
 414:	00000073          	ecall
 ret
 418:	8082                	ret

000000000000041a <dup>:
.global dup
dup:
 li a7, SYS_dup
 41a:	48a9                	li	a7,10
 ecall
 41c:	00000073          	ecall
 ret
 420:	8082                	ret

0000000000000422 <getpid>:
.global getpid
getpid:
 li a7, SYS_getpid
 422:	48ad                	li	a7,11
 ecall
 424:	00000073          	ecall
 ret
 428:	8082                	ret

000000000000042a <sbrk>:
.global sbrk
sbrk:
 li a7, SYS_sbrk
 42a:	48b1                	li	a7,12
 ecall
 42c:	00000073          	ecall
 ret
 430:	8082                	ret

0000000000000432 <sleep>:
.global sleep
sleep:
 li a7, SYS_sleep
 432:	48b5                	li	a7,13
 ecall
 434:	00000073          	ecall
 ret
 438:	8082                	ret

000000000000043a <uptime>:
.global uptime
uptime:
 li a7, SYS_uptime
 43a:	48b9                	li	a7,14
 ecall
 43c:	00000073          	ecall
 ret
 440:	8082                	ret

0000000000000442 <trace>:
.global trace
trace:
 li a7, SYS_trace
 442:	48d9                	li	a7,22
 ecall
 444:	00000073          	ecall
 ret
 448:	8082                	ret

000000000000044a <setpriority>:
.global setpriority
setpriority:
 li a7, SYS_setpriority
 44a:	48dd                	li	a7,23
 ecall
 44c:	00000073          	ecall
 ret
 450:	8082                	ret

0000000000000452 <waitx>:
.global waitx
waitx:
 li a7, SYS_waitx
 452:	48e1                	li	a7,24
 ecall
 454:	00000073          	ecall
 ret
 458:	8082                	ret
